                                      1 ;--------------------------------------------------------
                                      2 ; File Created by SDCC : free open source ANSI-C Compiler
                                      3 ; Version 3.4.0 #8981 (Apr  5 2014) (Mac OS X i386)
                                      4 ; This file was generated Mon Jun 29 17:10:06 2015
                                      5 ;--------------------------------------------------------
                                      6 	.module gatt_uuid
                                      7 	.optsdcc -mmcs51 --model-large
                                      8 	
                                      9 ;--------------------------------------------------------
                                     10 ; Public variables in this module
                                     11 ;--------------------------------------------------------
                                     12 	.globl _reportRefUUID
                                     13 	.globl _extReportRefUUID
                                     14 	.globl _validRangeUUID
                                     15 	.globl _manuAddrUUID
                                     16 	.globl _serialNumUUID
                                     17 	.globl _manuNameUUID
                                     18 	.globl _serviceChangedUUID
                                     19 	.globl _periConnParamUUID
                                     20 	.globl _reconnectAddrUUID
                                     21 	.globl _periPrivacyFlagUUID
                                     22 	.globl _appearanceUUID
                                     23 	.globl _deviceNameUUID
                                     24 	.globl _charAggFormatUUID
                                     25 	.globl _charFormatUUID
                                     26 	.globl _servCharCfgUUID
                                     27 	.globl _clientCharCfgUUID
                                     28 	.globl _charUserDescUUID
                                     29 	.globl _charExtPropsUUID
                                     30 	.globl _characterUUID
                                     31 	.globl _includeUUID
                                     32 	.globl _secondaryServiceUUID
                                     33 	.globl _primaryServiceUUID
                                     34 	.globl _addressServiceUUID
                                     35 	.globl _manufactServiceUUID
                                     36 	.globl _gattServiceUUID
                                     37 	.globl _gapServiceUUID
                                     38 	.globl _GATT_FindUUIDRec_PARM_2
                                     39 	.globl _GATT_FindUUIDRec
                                     40 ;--------------------------------------------------------
                                     41 ; special function registers
                                     42 ;--------------------------------------------------------
                                     43 	.area RSEG    (ABS,DATA)
      000000                         44 	.org 0x0000
                                     45 ;--------------------------------------------------------
                                     46 ; special function bits
                                     47 ;--------------------------------------------------------
                                     48 	.area RSEG    (ABS,DATA)
      000000                         49 	.org 0x0000
                                     50 ;--------------------------------------------------------
                                     51 ; overlayable register banks
                                     52 ;--------------------------------------------------------
                                     53 	.area REG_BANK_0	(REL,OVR,DATA)
      000000                         54 	.ds 8
                                     55 ;--------------------------------------------------------
                                     56 ; internal ram data
                                     57 ;--------------------------------------------------------
                                     58 	.area DSEG    (DATA)
                                     59 ;--------------------------------------------------------
                                     60 ; overlayable items in internal ram 
                                     61 ;--------------------------------------------------------
                                     62 ;--------------------------------------------------------
                                     63 ; indirectly addressable internal ram data
                                     64 ;--------------------------------------------------------
                                     65 	.area ISEG    (DATA)
                                     66 ;--------------------------------------------------------
                                     67 ; absolute internal ram data
                                     68 ;--------------------------------------------------------
                                     69 	.area IABS    (ABS,DATA)
                                     70 	.area IABS    (ABS,DATA)
                                     71 ;--------------------------------------------------------
                                     72 ; bit data
                                     73 ;--------------------------------------------------------
                                     74 	.area BSEG    (BIT)
                                     75 ;--------------------------------------------------------
                                     76 ; paged external ram data
                                     77 ;--------------------------------------------------------
                                     78 	.area PSEG    (PAG,XDATA)
                                     79 ;--------------------------------------------------------
                                     80 ; external ram data
                                     81 ;--------------------------------------------------------
                                     82 	.area XSEG    (XDATA)
      000000                         83 _GATT_FindUUIDRec_PARM_2:
      000000                         84 	.ds 1
      000001                         85 _GATT_FindUUIDRec_pUUID_1_185:
      000001                         86 	.ds 3
      000004                         87 _GATT_FindUUIDRec_pRec_1_186:
      000004                         88 	.ds 3
                                     89 ;--------------------------------------------------------
                                     90 ; absolute external ram data
                                     91 ;--------------------------------------------------------
                                     92 	.area XABS    (ABS,XDATA)
                                     93 ;--------------------------------------------------------
                                     94 ; external initialized ram data
                                     95 ;--------------------------------------------------------
                                     96 	.area HOME    (CODE)
                                     97 	.area GSINIT0 (CODE)
                                     98 	.area GSINIT1 (CODE)
                                     99 	.area GSINIT2 (CODE)
                                    100 	.area GSINIT3 (CODE)
                                    101 	.area GSINIT4 (CODE)
                                    102 	.area GSINIT5 (CODE)
                                    103 	.area GSINIT  (CODE)
                                    104 	.area GSFINAL (CODE)
                                    105 	.area CSEG    (CODE)
                                    106 ;--------------------------------------------------------
                                    107 ; global & static initialisations
                                    108 ;--------------------------------------------------------
                                    109 	.area HOME    (CODE)
                                    110 	.area GSINIT  (CODE)
                                    111 	.area GSFINAL (CODE)
                                    112 	.area GSINIT  (CODE)
                                    113 ;--------------------------------------------------------
                                    114 ; Home
                                    115 ;--------------------------------------------------------
                                    116 	.area HOME    (CODE)
                                    117 	.area HOME    (CODE)
                                    118 ;--------------------------------------------------------
                                    119 ; code
                                    120 ;--------------------------------------------------------
                                    121 	.area CSEG    (CODE)
                                    122 ;------------------------------------------------------------
                                    123 ;Allocation info for local variables in function 'GATT_FindUUIDRec'
                                    124 ;------------------------------------------------------------
                                    125 ;len                       Allocated with name '_GATT_FindUUIDRec_PARM_2'
                                    126 ;pUUID                     Allocated with name '_GATT_FindUUIDRec_pUUID_1_185'
                                    127 ;pRec                      Allocated with name '_GATT_FindUUIDRec_pRec_1_186'
                                    128 ;uuid                      Allocated with name '_GATT_FindUUIDRec_uuid_2_187'
                                    129 ;------------------------------------------------------------
                                    130 ;	../fake_ble_stack/ble/host/gatt_uuid.c:261: const uint8 *GATT_FindUUIDRec( uint8 *pUUID, uint8 len )
                                    131 ;	-----------------------------------------
                                    132 ;	 function GATT_FindUUIDRec
                                    133 ;	-----------------------------------------
      000000                        134 _GATT_FindUUIDRec:
                           000007   135 	ar7 = 0x07
                           000006   136 	ar6 = 0x06
                           000005   137 	ar5 = 0x05
                           000004   138 	ar4 = 0x04
                           000003   139 	ar3 = 0x03
                           000002   140 	ar2 = 0x02
                           000001   141 	ar1 = 0x01
                           000000   142 	ar0 = 0x00
      000000 AF F0            [24]  143 	mov	r7,b
      000002 AE 83            [24]  144 	mov	r6,dph
      000004 E5 82            [12]  145 	mov	a,dpl
      000006 90r00r01         [24]  146 	mov	dptr,#_GATT_FindUUIDRec_pUUID_1_185
      000009 F0               [24]  147 	movx	@dptr,a
      00000A EE               [12]  148 	mov	a,r6
      00000B A3               [24]  149 	inc	dptr
      00000C F0               [24]  150 	movx	@dptr,a
      00000D EF               [12]  151 	mov	a,r7
      00000E A3               [24]  152 	inc	dptr
      00000F F0               [24]  153 	movx	@dptr,a
                                    154 ;	../fake_ble_stack/ble/host/gatt_uuid.c:263: const uint8 *pRec = NULL;
      000010 90r00r04         [24]  155 	mov	dptr,#_GATT_FindUUIDRec_pRec_1_186
      000013 74 00            [12]  156 	mov	a,#0x00
      000015 F0               [24]  157 	movx	@dptr,a
      000016 A3               [24]  158 	inc	dptr
      000017 F0               [24]  159 	movx	@dptr,a
      000018 A3               [24]  160 	inc	dptr
      000019 F0               [24]  161 	movx	@dptr,a
                                    162 ;	../fake_ble_stack/ble/host/gatt_uuid.c:265: if ( len == ATT_BT_UUID_SIZE )
      00001A 90r00r00         [24]  163 	mov	dptr,#_GATT_FindUUIDRec_PARM_2
      00001D E0               [24]  164 	movx	a,@dptr
      00001E FF               [12]  165 	mov	r7,a
      00001F BF 02 02         [24]  166 	cjne	r7,#0x02,00195$
      000022 80 03            [24]  167 	sjmp	00196$
      000024                        168 00195$:
      000024 02r02r7F         [24]  169 	ljmp	00126$
      000027                        170 00196$:
                                    171 ;	../fake_ble_stack/ble/host/gatt_uuid.c:268: uint16 uuid = BUILD_UINT16( pUUID[0], pUUID[1] );
      000027 90r00r01         [24]  172 	mov	dptr,#_GATT_FindUUIDRec_pUUID_1_185
      00002A E0               [24]  173 	movx	a,@dptr
      00002B FD               [12]  174 	mov	r5,a
      00002C A3               [24]  175 	inc	dptr
      00002D E0               [24]  176 	movx	a,@dptr
      00002E FE               [12]  177 	mov	r6,a
      00002F A3               [24]  178 	inc	dptr
      000030 E0               [24]  179 	movx	a,@dptr
      000031 FF               [12]  180 	mov	r7,a
      000032 8D 82            [24]  181 	mov	dpl,r5
      000034 8E 83            [24]  182 	mov	dph,r6
      000036 8F F0            [24]  183 	mov	b,r7
      000038 12r00r00         [24]  184 	lcall	__gptrget
      00003B FC               [12]  185 	mov	r4,a
      00003C 7B 00            [12]  186 	mov	r3,#0x00
      00003E 0D               [12]  187 	inc	r5
      00003F BD 00 01         [24]  188 	cjne	r5,#0x00,00197$
      000042 0E               [12]  189 	inc	r6
      000043                        190 00197$:
      000043 8D 82            [24]  191 	mov	dpl,r5
      000045 8E 83            [24]  192 	mov	dph,r6
      000047 8F F0            [24]  193 	mov	b,r7
      000049 12r00r00         [24]  194 	lcall	__gptrget
      00004C FD               [12]  195 	mov	r5,a
      00004D 7F 00            [12]  196 	mov	r7,#0x00
      00004F 8D 07            [24]  197 	mov	ar7,r5
      000051 7D 00            [12]  198 	mov	r5,#0x00
      000053 ED               [12]  199 	mov	a,r5
      000054 2C               [12]  200 	add	a,r4
      000055 FC               [12]  201 	mov	r4,a
      000056 EF               [12]  202 	mov	a,r7
      000057 3B               [12]  203 	addc	a,r3
      000058 FB               [12]  204 	mov	r3,a
                                    205 ;	../fake_ble_stack/ble/host/gatt_uuid.c:269: switch ( uuid )
      000059 8C 06            [24]  206 	mov	ar6,r4
      00005B 8B 07            [24]  207 	mov	ar7,r3
      00005D BC 00 06         [24]  208 	cjne	r4,#0x00,00198$
      000060 BB 18 03         [24]  209 	cjne	r3,#0x18,00198$
      000063 02r01r1D         [24]  210 	ljmp	00101$
      000066                        211 00198$:
      000066 BE 01 06         [24]  212 	cjne	r6,#0x01,00199$
      000069 BF 18 03         [24]  213 	cjne	r7,#0x18,00199$
      00006C 02r01r2E         [24]  214 	ljmp	00102$
      00006F                        215 00199$:
      00006F BE 00 06         [24]  216 	cjne	r6,#0x00,00200$
      000072 BF 28 03         [24]  217 	cjne	r7,#0x28,00200$
      000075 02r01r3F         [24]  218 	ljmp	00103$
      000078                        219 00200$:
      000078 BE 01 06         [24]  220 	cjne	r6,#0x01,00201$
      00007B BF 28 03         [24]  221 	cjne	r7,#0x28,00201$
      00007E 02r01r50         [24]  222 	ljmp	00104$
      000081                        223 00201$:
      000081 BE 02 06         [24]  224 	cjne	r6,#0x02,00202$
      000084 BF 28 03         [24]  225 	cjne	r7,#0x28,00202$
      000087 02r01r61         [24]  226 	ljmp	00105$
      00008A                        227 00202$:
      00008A BE 03 06         [24]  228 	cjne	r6,#0x03,00203$
      00008D BF 28 03         [24]  229 	cjne	r7,#0x28,00203$
      000090 02r01r72         [24]  230 	ljmp	00106$
      000093                        231 00203$:
      000093 BE 00 06         [24]  232 	cjne	r6,#0x00,00204$
      000096 BF 29 03         [24]  233 	cjne	r7,#0x29,00204$
      000099 02r01r83         [24]  234 	ljmp	00107$
      00009C                        235 00204$:
      00009C BE 01 06         [24]  236 	cjne	r6,#0x01,00205$
      00009F BF 29 03         [24]  237 	cjne	r7,#0x29,00205$
      0000A2 02r01r94         [24]  238 	ljmp	00108$
      0000A5                        239 00205$:
      0000A5 BE 02 06         [24]  240 	cjne	r6,#0x02,00206$
      0000A8 BF 29 03         [24]  241 	cjne	r7,#0x29,00206$
      0000AB 02r01rA5         [24]  242 	ljmp	00109$
      0000AE                        243 00206$:
      0000AE BE 03 06         [24]  244 	cjne	r6,#0x03,00207$
      0000B1 BF 29 03         [24]  245 	cjne	r7,#0x29,00207$
      0000B4 02r01rB6         [24]  246 	ljmp	00110$
      0000B7                        247 00207$:
      0000B7 BE 04 06         [24]  248 	cjne	r6,#0x04,00208$
      0000BA BF 29 03         [24]  249 	cjne	r7,#0x29,00208$
      0000BD 02r01rC7         [24]  250 	ljmp	00111$
      0000C0                        251 00208$:
      0000C0 BE 05 06         [24]  252 	cjne	r6,#0x05,00209$
      0000C3 BF 29 03         [24]  253 	cjne	r7,#0x29,00209$
      0000C6 02r01rD8         [24]  254 	ljmp	00112$
      0000C9                        255 00209$:
      0000C9 BE 06 06         [24]  256 	cjne	r6,#0x06,00210$
      0000CC BF 29 03         [24]  257 	cjne	r7,#0x29,00210$
      0000CF 02r01rE9         [24]  258 	ljmp	00113$
      0000D2                        259 00210$:
      0000D2 BE 07 06         [24]  260 	cjne	r6,#0x07,00211$
      0000D5 BF 29 03         [24]  261 	cjne	r7,#0x29,00211$
      0000D8 02r01rFA         [24]  262 	ljmp	00114$
      0000DB                        263 00211$:
      0000DB BE 08 06         [24]  264 	cjne	r6,#0x08,00212$
      0000DE BF 29 03         [24]  265 	cjne	r7,#0x29,00212$
      0000E1 02r02r0B         [24]  266 	ljmp	00115$
      0000E4                        267 00212$:
      0000E4 BE 00 06         [24]  268 	cjne	r6,#0x00,00213$
      0000E7 BF 2A 03         [24]  269 	cjne	r7,#0x2A,00213$
      0000EA 02r02r1C         [24]  270 	ljmp	00116$
      0000ED                        271 00213$:
      0000ED BE 01 06         [24]  272 	cjne	r6,#0x01,00214$
      0000F0 BF 2A 03         [24]  273 	cjne	r7,#0x2A,00214$
      0000F3 02r02r2D         [24]  274 	ljmp	00117$
      0000F6                        275 00214$:
      0000F6 BE 02 06         [24]  276 	cjne	r6,#0x02,00215$
      0000F9 BF 2A 03         [24]  277 	cjne	r7,#0x2A,00215$
      0000FC 02r02r4F         [24]  278 	ljmp	00119$
      0000FF                        279 00215$:
      0000FF BE 03 06         [24]  280 	cjne	r6,#0x03,00216$
      000102 BF 2A 03         [24]  281 	cjne	r7,#0x2A,00216$
      000105 02r02r3E         [24]  282 	ljmp	00118$
      000108                        283 00216$:
      000108 BE 04 06         [24]  284 	cjne	r6,#0x04,00217$
      00010B BF 2A 03         [24]  285 	cjne	r7,#0x2A,00217$
      00010E 02r02r60         [24]  286 	ljmp	00120$
      000111                        287 00217$:
      000111 BE 05 06         [24]  288 	cjne	r6,#0x05,00218$
      000114 BF 2A 03         [24]  289 	cjne	r7,#0x2A,00218$
      000117 02r02r71         [24]  290 	ljmp	00121$
      00011A                        291 00218$:
      00011A 02r02r7F         [24]  292 	ljmp	00126$
                                    293 ;	../fake_ble_stack/ble/host/gatt_uuid.c:273: case GAP_SERVICE_UUID:
      00011D                        294 00101$:
                                    295 ;	../fake_ble_stack/ble/host/gatt_uuid.c:274: pRec = gapServiceUUID;
      00011D 90r00r04         [24]  296 	mov	dptr,#_GATT_FindUUIDRec_pRec_1_186
      000120 74r00            [12]  297 	mov	a,#_gapServiceUUID
      000122 F0               [24]  298 	movx	@dptr,a
      000123 74s00            [12]  299 	mov	a,#(_gapServiceUUID >> 8)
      000125 A3               [24]  300 	inc	dptr
      000126 F0               [24]  301 	movx	@dptr,a
      000127 74 80            [12]  302 	mov	a,#0x80
      000129 A3               [24]  303 	inc	dptr
      00012A F0               [24]  304 	movx	@dptr,a
                                    305 ;	../fake_ble_stack/ble/host/gatt_uuid.c:275: break;
      00012B 02r02r7F         [24]  306 	ljmp	00126$
                                    307 ;	../fake_ble_stack/ble/host/gatt_uuid.c:277: case GATT_SERVICE_UUID:
      00012E                        308 00102$:
                                    309 ;	../fake_ble_stack/ble/host/gatt_uuid.c:278: pRec = gattServiceUUID;
      00012E 90r00r04         [24]  310 	mov	dptr,#_GATT_FindUUIDRec_pRec_1_186
      000131 74r02            [12]  311 	mov	a,#_gattServiceUUID
      000133 F0               [24]  312 	movx	@dptr,a
      000134 74s00            [12]  313 	mov	a,#(_gattServiceUUID >> 8)
      000136 A3               [24]  314 	inc	dptr
      000137 F0               [24]  315 	movx	@dptr,a
      000138 74 80            [12]  316 	mov	a,#0x80
      00013A A3               [24]  317 	inc	dptr
      00013B F0               [24]  318 	movx	@dptr,a
                                    319 ;	../fake_ble_stack/ble/host/gatt_uuid.c:279: break;
      00013C 02r02r7F         [24]  320 	ljmp	00126$
                                    321 ;	../fake_ble_stack/ble/host/gatt_uuid.c:283: case GATT_PRIMARY_SERVICE_UUID:
      00013F                        322 00103$:
                                    323 ;	../fake_ble_stack/ble/host/gatt_uuid.c:284: pRec = primaryServiceUUID;
      00013F 90r00r04         [24]  324 	mov	dptr,#_GATT_FindUUIDRec_pRec_1_186
      000142 74r08            [12]  325 	mov	a,#_primaryServiceUUID
      000144 F0               [24]  326 	movx	@dptr,a
      000145 74s00            [12]  327 	mov	a,#(_primaryServiceUUID >> 8)
      000147 A3               [24]  328 	inc	dptr
      000148 F0               [24]  329 	movx	@dptr,a
      000149 74 80            [12]  330 	mov	a,#0x80
      00014B A3               [24]  331 	inc	dptr
      00014C F0               [24]  332 	movx	@dptr,a
                                    333 ;	../fake_ble_stack/ble/host/gatt_uuid.c:285: break;
      00014D 02r02r7F         [24]  334 	ljmp	00126$
                                    335 ;	../fake_ble_stack/ble/host/gatt_uuid.c:287: case GATT_SECONDARY_SERVICE_UUID:
      000150                        336 00104$:
                                    337 ;	../fake_ble_stack/ble/host/gatt_uuid.c:288: pRec = secondaryServiceUUID;
      000150 90r00r04         [24]  338 	mov	dptr,#_GATT_FindUUIDRec_pRec_1_186
      000153 74r0A            [12]  339 	mov	a,#_secondaryServiceUUID
      000155 F0               [24]  340 	movx	@dptr,a
      000156 74s00            [12]  341 	mov	a,#(_secondaryServiceUUID >> 8)
      000158 A3               [24]  342 	inc	dptr
      000159 F0               [24]  343 	movx	@dptr,a
      00015A 74 80            [12]  344 	mov	a,#0x80
      00015C A3               [24]  345 	inc	dptr
      00015D F0               [24]  346 	movx	@dptr,a
                                    347 ;	../fake_ble_stack/ble/host/gatt_uuid.c:289: break;
      00015E 02r02r7F         [24]  348 	ljmp	00126$
                                    349 ;	../fake_ble_stack/ble/host/gatt_uuid.c:291: case GATT_INCLUDE_UUID:
      000161                        350 00105$:
                                    351 ;	../fake_ble_stack/ble/host/gatt_uuid.c:292: pRec = includeUUID;
      000161 90r00r04         [24]  352 	mov	dptr,#_GATT_FindUUIDRec_pRec_1_186
      000164 74r0C            [12]  353 	mov	a,#_includeUUID
      000166 F0               [24]  354 	movx	@dptr,a
      000167 74s00            [12]  355 	mov	a,#(_includeUUID >> 8)
      000169 A3               [24]  356 	inc	dptr
      00016A F0               [24]  357 	movx	@dptr,a
      00016B 74 80            [12]  358 	mov	a,#0x80
      00016D A3               [24]  359 	inc	dptr
      00016E F0               [24]  360 	movx	@dptr,a
                                    361 ;	../fake_ble_stack/ble/host/gatt_uuid.c:293: break;
      00016F 02r02r7F         [24]  362 	ljmp	00126$
                                    363 ;	../fake_ble_stack/ble/host/gatt_uuid.c:295: case GATT_CHARACTER_UUID:
      000172                        364 00106$:
                                    365 ;	../fake_ble_stack/ble/host/gatt_uuid.c:296: pRec = characterUUID;
      000172 90r00r04         [24]  366 	mov	dptr,#_GATT_FindUUIDRec_pRec_1_186
      000175 74r0E            [12]  367 	mov	a,#_characterUUID
      000177 F0               [24]  368 	movx	@dptr,a
      000178 74s00            [12]  369 	mov	a,#(_characterUUID >> 8)
      00017A A3               [24]  370 	inc	dptr
      00017B F0               [24]  371 	movx	@dptr,a
      00017C 74 80            [12]  372 	mov	a,#0x80
      00017E A3               [24]  373 	inc	dptr
      00017F F0               [24]  374 	movx	@dptr,a
                                    375 ;	../fake_ble_stack/ble/host/gatt_uuid.c:297: break;
      000180 02r02r7F         [24]  376 	ljmp	00126$
                                    377 ;	../fake_ble_stack/ble/host/gatt_uuid.c:301: case GATT_CHAR_EXT_PROPS_UUID:
      000183                        378 00107$:
                                    379 ;	../fake_ble_stack/ble/host/gatt_uuid.c:302: pRec = charExtPropsUUID;
      000183 90r00r04         [24]  380 	mov	dptr,#_GATT_FindUUIDRec_pRec_1_186
      000186 74r10            [12]  381 	mov	a,#_charExtPropsUUID
      000188 F0               [24]  382 	movx	@dptr,a
      000189 74s00            [12]  383 	mov	a,#(_charExtPropsUUID >> 8)
      00018B A3               [24]  384 	inc	dptr
      00018C F0               [24]  385 	movx	@dptr,a
      00018D 74 80            [12]  386 	mov	a,#0x80
      00018F A3               [24]  387 	inc	dptr
      000190 F0               [24]  388 	movx	@dptr,a
                                    389 ;	../fake_ble_stack/ble/host/gatt_uuid.c:303: break;
      000191 02r02r7F         [24]  390 	ljmp	00126$
                                    391 ;	../fake_ble_stack/ble/host/gatt_uuid.c:305: case GATT_CHAR_USER_DESC_UUID:
      000194                        392 00108$:
                                    393 ;	../fake_ble_stack/ble/host/gatt_uuid.c:306: pRec = charUserDescUUID;
      000194 90r00r04         [24]  394 	mov	dptr,#_GATT_FindUUIDRec_pRec_1_186
      000197 74r12            [12]  395 	mov	a,#_charUserDescUUID
      000199 F0               [24]  396 	movx	@dptr,a
      00019A 74s00            [12]  397 	mov	a,#(_charUserDescUUID >> 8)
      00019C A3               [24]  398 	inc	dptr
      00019D F0               [24]  399 	movx	@dptr,a
      00019E 74 80            [12]  400 	mov	a,#0x80
      0001A0 A3               [24]  401 	inc	dptr
      0001A1 F0               [24]  402 	movx	@dptr,a
                                    403 ;	../fake_ble_stack/ble/host/gatt_uuid.c:307: break;
      0001A2 02r02r7F         [24]  404 	ljmp	00126$
                                    405 ;	../fake_ble_stack/ble/host/gatt_uuid.c:309: case GATT_CLIENT_CHAR_CFG_UUID:
      0001A5                        406 00109$:
                                    407 ;	../fake_ble_stack/ble/host/gatt_uuid.c:310: pRec = clientCharCfgUUID;
      0001A5 90r00r04         [24]  408 	mov	dptr,#_GATT_FindUUIDRec_pRec_1_186
      0001A8 74r14            [12]  409 	mov	a,#_clientCharCfgUUID
      0001AA F0               [24]  410 	movx	@dptr,a
      0001AB 74s00            [12]  411 	mov	a,#(_clientCharCfgUUID >> 8)
      0001AD A3               [24]  412 	inc	dptr
      0001AE F0               [24]  413 	movx	@dptr,a
      0001AF 74 80            [12]  414 	mov	a,#0x80
      0001B1 A3               [24]  415 	inc	dptr
      0001B2 F0               [24]  416 	movx	@dptr,a
                                    417 ;	../fake_ble_stack/ble/host/gatt_uuid.c:311: break;
      0001B3 02r02r7F         [24]  418 	ljmp	00126$
                                    419 ;	../fake_ble_stack/ble/host/gatt_uuid.c:313: case GATT_SERV_CHAR_CFG_UUID:
      0001B6                        420 00110$:
                                    421 ;	../fake_ble_stack/ble/host/gatt_uuid.c:314: pRec = servCharCfgUUID;
      0001B6 90r00r04         [24]  422 	mov	dptr,#_GATT_FindUUIDRec_pRec_1_186
      0001B9 74r16            [12]  423 	mov	a,#_servCharCfgUUID
      0001BB F0               [24]  424 	movx	@dptr,a
      0001BC 74s00            [12]  425 	mov	a,#(_servCharCfgUUID >> 8)
      0001BE A3               [24]  426 	inc	dptr
      0001BF F0               [24]  427 	movx	@dptr,a
      0001C0 74 80            [12]  428 	mov	a,#0x80
      0001C2 A3               [24]  429 	inc	dptr
      0001C3 F0               [24]  430 	movx	@dptr,a
                                    431 ;	../fake_ble_stack/ble/host/gatt_uuid.c:315: break;
      0001C4 02r02r7F         [24]  432 	ljmp	00126$
                                    433 ;	../fake_ble_stack/ble/host/gatt_uuid.c:317: case GATT_CHAR_FORMAT_UUID:
      0001C7                        434 00111$:
                                    435 ;	../fake_ble_stack/ble/host/gatt_uuid.c:318: pRec = charFormatUUID;
      0001C7 90r00r04         [24]  436 	mov	dptr,#_GATT_FindUUIDRec_pRec_1_186
      0001CA 74r18            [12]  437 	mov	a,#_charFormatUUID
      0001CC F0               [24]  438 	movx	@dptr,a
      0001CD 74s00            [12]  439 	mov	a,#(_charFormatUUID >> 8)
      0001CF A3               [24]  440 	inc	dptr
      0001D0 F0               [24]  441 	movx	@dptr,a
      0001D1 74 80            [12]  442 	mov	a,#0x80
      0001D3 A3               [24]  443 	inc	dptr
      0001D4 F0               [24]  444 	movx	@dptr,a
                                    445 ;	../fake_ble_stack/ble/host/gatt_uuid.c:319: break;
      0001D5 02r02r7F         [24]  446 	ljmp	00126$
                                    447 ;	../fake_ble_stack/ble/host/gatt_uuid.c:321: case GATT_CHAR_AGG_FORMAT_UUID:
      0001D8                        448 00112$:
                                    449 ;	../fake_ble_stack/ble/host/gatt_uuid.c:322: pRec = charAggFormatUUID;
      0001D8 90r00r04         [24]  450 	mov	dptr,#_GATT_FindUUIDRec_pRec_1_186
      0001DB 74r1A            [12]  451 	mov	a,#_charAggFormatUUID
      0001DD F0               [24]  452 	movx	@dptr,a
      0001DE 74s00            [12]  453 	mov	a,#(_charAggFormatUUID >> 8)
      0001E0 A3               [24]  454 	inc	dptr
      0001E1 F0               [24]  455 	movx	@dptr,a
      0001E2 74 80            [12]  456 	mov	a,#0x80
      0001E4 A3               [24]  457 	inc	dptr
      0001E5 F0               [24]  458 	movx	@dptr,a
                                    459 ;	../fake_ble_stack/ble/host/gatt_uuid.c:323: break;
      0001E6 02r02r7F         [24]  460 	ljmp	00126$
                                    461 ;	../fake_ble_stack/ble/host/gatt_uuid.c:325: case GATT_VALID_RANGE_UUID:
      0001E9                        462 00113$:
                                    463 ;	../fake_ble_stack/ble/host/gatt_uuid.c:326: pRec = validRangeUUID;
      0001E9 90r00r04         [24]  464 	mov	dptr,#_GATT_FindUUIDRec_pRec_1_186
      0001EC 74r2E            [12]  465 	mov	a,#_validRangeUUID
      0001EE F0               [24]  466 	movx	@dptr,a
      0001EF 74s00            [12]  467 	mov	a,#(_validRangeUUID >> 8)
      0001F1 A3               [24]  468 	inc	dptr
      0001F2 F0               [24]  469 	movx	@dptr,a
      0001F3 74 80            [12]  470 	mov	a,#0x80
      0001F5 A3               [24]  471 	inc	dptr
      0001F6 F0               [24]  472 	movx	@dptr,a
                                    473 ;	../fake_ble_stack/ble/host/gatt_uuid.c:327: break;
      0001F7 02r02r7F         [24]  474 	ljmp	00126$
                                    475 ;	../fake_ble_stack/ble/host/gatt_uuid.c:329: case GATT_EXT_REPORT_REF_UUID:
      0001FA                        476 00114$:
                                    477 ;	../fake_ble_stack/ble/host/gatt_uuid.c:330: pRec = extReportRefUUID;
      0001FA 90r00r04         [24]  478 	mov	dptr,#_GATT_FindUUIDRec_pRec_1_186
      0001FD 74r30            [12]  479 	mov	a,#_extReportRefUUID
      0001FF F0               [24]  480 	movx	@dptr,a
      000200 74s00            [12]  481 	mov	a,#(_extReportRefUUID >> 8)
      000202 A3               [24]  482 	inc	dptr
      000203 F0               [24]  483 	movx	@dptr,a
      000204 74 80            [12]  484 	mov	a,#0x80
      000206 A3               [24]  485 	inc	dptr
      000207 F0               [24]  486 	movx	@dptr,a
                                    487 ;	../fake_ble_stack/ble/host/gatt_uuid.c:331: break;
      000208 02r02r7F         [24]  488 	ljmp	00126$
                                    489 ;	../fake_ble_stack/ble/host/gatt_uuid.c:333: case GATT_REPORT_REF_UUID:
      00020B                        490 00115$:
                                    491 ;	../fake_ble_stack/ble/host/gatt_uuid.c:334: pRec = reportRefUUID;
      00020B 90r00r04         [24]  492 	mov	dptr,#_GATT_FindUUIDRec_pRec_1_186
      00020E 74r32            [12]  493 	mov	a,#_reportRefUUID
      000210 F0               [24]  494 	movx	@dptr,a
      000211 74s00            [12]  495 	mov	a,#(_reportRefUUID >> 8)
      000213 A3               [24]  496 	inc	dptr
      000214 F0               [24]  497 	movx	@dptr,a
      000215 74 80            [12]  498 	mov	a,#0x80
      000217 A3               [24]  499 	inc	dptr
      000218 F0               [24]  500 	movx	@dptr,a
                                    501 ;	../fake_ble_stack/ble/host/gatt_uuid.c:335: break;
      000219 02r02r7F         [24]  502 	ljmp	00126$
                                    503 ;	../fake_ble_stack/ble/host/gatt_uuid.c:339: case DEVICE_NAME_UUID:
      00021C                        504 00116$:
                                    505 ;	../fake_ble_stack/ble/host/gatt_uuid.c:340: pRec = deviceNameUUID;
      00021C 90r00r04         [24]  506 	mov	dptr,#_GATT_FindUUIDRec_pRec_1_186
      00021F 74r1C            [12]  507 	mov	a,#_deviceNameUUID
      000221 F0               [24]  508 	movx	@dptr,a
      000222 74s00            [12]  509 	mov	a,#(_deviceNameUUID >> 8)
      000224 A3               [24]  510 	inc	dptr
      000225 F0               [24]  511 	movx	@dptr,a
      000226 74 80            [12]  512 	mov	a,#0x80
      000228 A3               [24]  513 	inc	dptr
      000229 F0               [24]  514 	movx	@dptr,a
                                    515 ;	../fake_ble_stack/ble/host/gatt_uuid.c:341: break;
      00022A 02r02r7F         [24]  516 	ljmp	00126$
                                    517 ;	../fake_ble_stack/ble/host/gatt_uuid.c:343: case APPEARANCE_UUID:
      00022D                        518 00117$:
                                    519 ;	../fake_ble_stack/ble/host/gatt_uuid.c:344: pRec = appearanceUUID;
      00022D 90r00r04         [24]  520 	mov	dptr,#_GATT_FindUUIDRec_pRec_1_186
      000230 74r1E            [12]  521 	mov	a,#_appearanceUUID
      000232 F0               [24]  522 	movx	@dptr,a
      000233 74s00            [12]  523 	mov	a,#(_appearanceUUID >> 8)
      000235 A3               [24]  524 	inc	dptr
      000236 F0               [24]  525 	movx	@dptr,a
      000237 74 80            [12]  526 	mov	a,#0x80
      000239 A3               [24]  527 	inc	dptr
      00023A F0               [24]  528 	movx	@dptr,a
                                    529 ;	../fake_ble_stack/ble/host/gatt_uuid.c:345: break;
      00023B 02r02r7F         [24]  530 	ljmp	00126$
                                    531 ;	../fake_ble_stack/ble/host/gatt_uuid.c:347: case RECONNECT_ADDR_UUID:
      00023E                        532 00118$:
                                    533 ;	../fake_ble_stack/ble/host/gatt_uuid.c:348: pRec = reconnectAddrUUID;
      00023E 90r00r04         [24]  534 	mov	dptr,#_GATT_FindUUIDRec_pRec_1_186
      000241 74r22            [12]  535 	mov	a,#_reconnectAddrUUID
      000243 F0               [24]  536 	movx	@dptr,a
      000244 74s00            [12]  537 	mov	a,#(_reconnectAddrUUID >> 8)
      000246 A3               [24]  538 	inc	dptr
      000247 F0               [24]  539 	movx	@dptr,a
      000248 74 80            [12]  540 	mov	a,#0x80
      00024A A3               [24]  541 	inc	dptr
      00024B F0               [24]  542 	movx	@dptr,a
                                    543 ;	../fake_ble_stack/ble/host/gatt_uuid.c:349: break;
      00024C 02r02r7F         [24]  544 	ljmp	00126$
                                    545 ;	../fake_ble_stack/ble/host/gatt_uuid.c:351: case PERI_PRIVACY_FLAG_UUID:
      00024F                        546 00119$:
                                    547 ;	../fake_ble_stack/ble/host/gatt_uuid.c:352: pRec = periPrivacyFlagUUID;
      00024F 90r00r04         [24]  548 	mov	dptr,#_GATT_FindUUIDRec_pRec_1_186
      000252 74r20            [12]  549 	mov	a,#_periPrivacyFlagUUID
      000254 F0               [24]  550 	movx	@dptr,a
      000255 74s00            [12]  551 	mov	a,#(_periPrivacyFlagUUID >> 8)
      000257 A3               [24]  552 	inc	dptr
      000258 F0               [24]  553 	movx	@dptr,a
      000259 74 80            [12]  554 	mov	a,#0x80
      00025B A3               [24]  555 	inc	dptr
      00025C F0               [24]  556 	movx	@dptr,a
                                    557 ;	../fake_ble_stack/ble/host/gatt_uuid.c:353: break;
      00025D 02r02r7F         [24]  558 	ljmp	00126$
                                    559 ;	../fake_ble_stack/ble/host/gatt_uuid.c:355: case PERI_CONN_PARAM_UUID:
      000260                        560 00120$:
                                    561 ;	../fake_ble_stack/ble/host/gatt_uuid.c:356: pRec = periConnParamUUID;
      000260 90r00r04         [24]  562 	mov	dptr,#_GATT_FindUUIDRec_pRec_1_186
      000263 74r24            [12]  563 	mov	a,#_periConnParamUUID
      000265 F0               [24]  564 	movx	@dptr,a
      000266 74s00            [12]  565 	mov	a,#(_periConnParamUUID >> 8)
      000268 A3               [24]  566 	inc	dptr
      000269 F0               [24]  567 	movx	@dptr,a
      00026A 74 80            [12]  568 	mov	a,#0x80
      00026C A3               [24]  569 	inc	dptr
      00026D F0               [24]  570 	movx	@dptr,a
                                    571 ;	../fake_ble_stack/ble/host/gatt_uuid.c:357: break;
      00026E 02r02r7F         [24]  572 	ljmp	00126$
                                    573 ;	../fake_ble_stack/ble/host/gatt_uuid.c:359: case SERVICE_CHANGED_UUID:
      000271                        574 00121$:
                                    575 ;	../fake_ble_stack/ble/host/gatt_uuid.c:360: pRec = serviceChangedUUID;
      000271 90r00r04         [24]  576 	mov	dptr,#_GATT_FindUUIDRec_pRec_1_186
      000274 74r26            [12]  577 	mov	a,#_serviceChangedUUID
      000276 F0               [24]  578 	movx	@dptr,a
      000277 74s00            [12]  579 	mov	a,#(_serviceChangedUUID >> 8)
      000279 A3               [24]  580 	inc	dptr
      00027A F0               [24]  581 	movx	@dptr,a
      00027B 74 80            [12]  582 	mov	a,#0x80
      00027D A3               [24]  583 	inc	dptr
      00027E F0               [24]  584 	movx	@dptr,a
                                    585 ;	../fake_ble_stack/ble/host/gatt_uuid.c:371: else if ( len == ATT_UUID_SIZE )
      00027F                        586 00126$:
                                    587 ;	../fake_ble_stack/ble/host/gatt_uuid.c:376: return ( pRec );
      00027F 90r00r04         [24]  588 	mov	dptr,#_GATT_FindUUIDRec_pRec_1_186
      000282 E0               [24]  589 	movx	a,@dptr
      000283 FD               [12]  590 	mov	r5,a
      000284 A3               [24]  591 	inc	dptr
      000285 E0               [24]  592 	movx	a,@dptr
      000286 FE               [12]  593 	mov	r6,a
      000287 A3               [24]  594 	inc	dptr
      000288 E0               [24]  595 	movx	a,@dptr
      000289 FF               [12]  596 	mov	r7,a
      00028A 8D 82            [24]  597 	mov	dpl,r5
      00028C 8E 83            [24]  598 	mov	dph,r6
      00028E 8F F0            [24]  599 	mov	b,r7
      000290                        600 00127$:
      000290 22               [24]  601 	ret
                                    602 	.area CSEG    (CODE)
                                    603 	.area CONST   (CODE)
      000000                        604 _gapServiceUUID:
      000000 00                     605 	.db #0x00	; 0
      000001 18                     606 	.db #0x18	; 24
      000002                        607 _gattServiceUUID:
      000002 01                     608 	.db #0x01	; 1
      000003 18                     609 	.db #0x18	; 24
      000004                        610 _manufactServiceUUID:
      000004 05                     611 	.db #0x05	; 5
      000005 A0                     612 	.db #0xA0	; 160
      000006                        613 _addressServiceUUID:
      000006 06                     614 	.db #0x06	; 6
      000007 A0                     615 	.db #0xA0	; 160
      000008                        616 _primaryServiceUUID:
      000008 00                     617 	.db #0x00	; 0
      000009 28                     618 	.db #0x28	; 40
      00000A                        619 _secondaryServiceUUID:
      00000A 01                     620 	.db #0x01	; 1
      00000B 28                     621 	.db #0x28	; 40
      00000C                        622 _includeUUID:
      00000C 02                     623 	.db #0x02	; 2
      00000D 28                     624 	.db #0x28	; 40
      00000E                        625 _characterUUID:
      00000E 03                     626 	.db #0x03	; 3
      00000F 28                     627 	.db #0x28	; 40
      000010                        628 _charExtPropsUUID:
      000010 00                     629 	.db #0x00	; 0
      000011 29                     630 	.db #0x29	; 41
      000012                        631 _charUserDescUUID:
      000012 01                     632 	.db #0x01	; 1
      000013 29                     633 	.db #0x29	; 41
      000014                        634 _clientCharCfgUUID:
      000014 02                     635 	.db #0x02	; 2
      000015 29                     636 	.db #0x29	; 41
      000016                        637 _servCharCfgUUID:
      000016 03                     638 	.db #0x03	; 3
      000017 29                     639 	.db #0x29	; 41
      000018                        640 _charFormatUUID:
      000018 04                     641 	.db #0x04	; 4
      000019 29                     642 	.db #0x29	; 41
      00001A                        643 _charAggFormatUUID:
      00001A 05                     644 	.db #0x05	; 5
      00001B 29                     645 	.db #0x29	; 41
      00001C                        646 _deviceNameUUID:
      00001C 00                     647 	.db #0x00	; 0
      00001D 2A                     648 	.db #0x2A	; 42
      00001E                        649 _appearanceUUID:
      00001E 01                     650 	.db #0x01	; 1
      00001F 2A                     651 	.db #0x2A	; 42
      000020                        652 _periPrivacyFlagUUID:
      000020 02                     653 	.db #0x02	; 2
      000021 2A                     654 	.db #0x2A	; 42
      000022                        655 _reconnectAddrUUID:
      000022 03                     656 	.db #0x03	; 3
      000023 2A                     657 	.db #0x2A	; 42
      000024                        658 _periConnParamUUID:
      000024 04                     659 	.db #0x04	; 4
      000025 2A                     660 	.db #0x2A	; 42
      000026                        661 _serviceChangedUUID:
      000026 05                     662 	.db #0x05	; 5
      000027 2A                     663 	.db #0x2A	; 42
      000028                        664 _manuNameUUID:
      000028 08                     665 	.db #0x08	; 8
      000029 B0                     666 	.db #0xB0	; 176
      00002A                        667 _serialNumUUID:
      00002A 09                     668 	.db #0x09	; 9
      00002B B0                     669 	.db #0xB0	; 176
      00002C                        670 _manuAddrUUID:
      00002C 0A                     671 	.db #0x0A	; 10
      00002D B0                     672 	.db #0xB0	; 176
      00002E                        673 _validRangeUUID:
      00002E 06                     674 	.db #0x06	; 6
      00002F 29                     675 	.db #0x29	; 41
      000030                        676 _extReportRefUUID:
      000030 07                     677 	.db #0x07	; 7
      000031 29                     678 	.db #0x29	; 41
      000032                        679 _reportRefUUID:
      000032 08                     680 	.db #0x08	; 8
      000033 29                     681 	.db #0x29	; 41
                                    682 	.area CABS    (ABS,CODE)
