                                      1 ;--------------------------------------------------------
                                      2 ; File Created by SDCC : free open source ANSI-C Compiler
                                      3 ; Version 3.4.0 #8981 (Apr  5 2014) (Mac OS X i386)
                                      4 ; This file was generated Mon Jun 29 17:10:05 2015
                                      5 ;--------------------------------------------------------
                                      6 	.module OSAL_Timers
                                      7 	.optsdcc -mmcs51 --model-large
                                      8 	
                                      9 ;--------------------------------------------------------
                                     10 ; Public variables in this module
                                     11 ;--------------------------------------------------------
                                     12 	.globl _osal_set_event
                                     13 	.globl _osal_mem_free
                                     14 	.globl _osal_mem_alloc
                                     15 	.globl _MODE
                                     16 	.globl _RE
                                     17 	.globl _SLAVE
                                     18 	.globl _FE
                                     19 	.globl _ERR
                                     20 	.globl _RX_BYTE
                                     21 	.globl _TX_BYTE
                                     22 	.globl _ACTIVE
                                     23 	.globl _B_7
                                     24 	.globl _B_6
                                     25 	.globl _B_5
                                     26 	.globl _B_4
                                     27 	.globl _B_3
                                     28 	.globl _B_2
                                     29 	.globl _B_1
                                     30 	.globl _B_0
                                     31 	.globl _WDTIF
                                     32 	.globl _P1IF
                                     33 	.globl _UTX1IF
                                     34 	.globl _UTX0IF
                                     35 	.globl _P2IF
                                     36 	.globl _ACC_7
                                     37 	.globl _ACC_6
                                     38 	.globl _ACC_5
                                     39 	.globl _ACC_4
                                     40 	.globl _ACC_3
                                     41 	.globl _ACC_2
                                     42 	.globl _ACC_1
                                     43 	.globl _ACC_0
                                     44 	.globl _OVFIM
                                     45 	.globl _T4CH1IF
                                     46 	.globl _T4CH0IF
                                     47 	.globl _T4OVFIF
                                     48 	.globl _T3CH1IF
                                     49 	.globl _T3CH0IF
                                     50 	.globl _T3OVFIF
                                     51 	.globl _CY
                                     52 	.globl _AC
                                     53 	.globl _F0
                                     54 	.globl _RS1
                                     55 	.globl _RS0
                                     56 	.globl _OV
                                     57 	.globl _F1
                                     58 	.globl _P
                                     59 	.globl _STIF
                                     60 	.globl _P0IF
                                     61 	.globl _T4IF
                                     62 	.globl _T3IF
                                     63 	.globl _T2IF
                                     64 	.globl _T1IF
                                     65 	.globl _DMAIF
                                     66 	.globl _P0IE
                                     67 	.globl _T4IE
                                     68 	.globl _T3IE
                                     69 	.globl _T2IE
                                     70 	.globl _T1IE
                                     71 	.globl _DMAIE
                                     72 	.globl _EA
                                     73 	.globl _STIE
                                     74 	.globl _ENCIE
                                     75 	.globl _URX1IE
                                     76 	.globl _URX0IE
                                     77 	.globl _ADCIE
                                     78 	.globl _RFERRIE
                                     79 	.globl _P2_7
                                     80 	.globl _P2_6
                                     81 	.globl _P2_5
                                     82 	.globl _P2_4
                                     83 	.globl _P2_3
                                     84 	.globl _P2_2
                                     85 	.globl _P2_1
                                     86 	.globl _P2_0
                                     87 	.globl _ENCIF_1
                                     88 	.globl _ENCIF_0
                                     89 	.globl _P1_7
                                     90 	.globl _P1_6
                                     91 	.globl _P1_5
                                     92 	.globl _P1_4
                                     93 	.globl _P1_3
                                     94 	.globl _P1_2
                                     95 	.globl _P1_1
                                     96 	.globl _P1_0
                                     97 	.globl _URX1IF
                                     98 	.globl _ADCIF
                                     99 	.globl _URX0IF
                                    100 	.globl _IT1
                                    101 	.globl _RFERRIF
                                    102 	.globl _IT0
                                    103 	.globl _P0_7
                                    104 	.globl _P0_6
                                    105 	.globl _P0_5
                                    106 	.globl _P0_4
                                    107 	.globl _P0_3
                                    108 	.globl _P0_2
                                    109 	.globl _P0_1
                                    110 	.globl _P0_0
                                    111 	.globl _P2DIR
                                    112 	.globl _P1DIR
                                    113 	.globl _P0DIR
                                    114 	.globl _U1GCR
                                    115 	.globl _U1UCR
                                    116 	.globl _U1BAUD
                                    117 	.globl _U1DBUF
                                    118 	.globl _U1CSR
                                    119 	.globl _P2INP
                                    120 	.globl _P1INP
                                    121 	.globl _P2SEL
                                    122 	.globl _P1SEL
                                    123 	.globl _P0SEL
                                    124 	.globl _APCFG
                                    125 	.globl _PERCFG
                                    126 	.globl _B
                                    127 	.globl _T4CC1
                                    128 	.globl _T4CCTL1
                                    129 	.globl _T4CC0
                                    130 	.globl _T4CCTL0
                                    131 	.globl _T4CTL
                                    132 	.globl _T4CNT
                                    133 	.globl _RFIRQF0
                                    134 	.globl _IRCON2
                                    135 	.globl _T1CCTL2
                                    136 	.globl _T1CCTL1
                                    137 	.globl _T1CCTL0
                                    138 	.globl _T1CTL
                                    139 	.globl _T1CNTH
                                    140 	.globl _T1CNTL
                                    141 	.globl _RFST
                                    142 	.globl _ACC
                                    143 	.globl _T1CC2H
                                    144 	.globl _T1CC2L
                                    145 	.globl _T1CC1H
                                    146 	.globl _T1CC1L
                                    147 	.globl _T1CC0H
                                    148 	.globl _T1CC0L
                                    149 	.globl _RFD
                                    150 	.globl _TIMIF
                                    151 	.globl _DMAREQ
                                    152 	.globl _DMAARM
                                    153 	.globl _DMA0CFGH
                                    154 	.globl _DMA0CFGL
                                    155 	.globl _DMA1CFGH
                                    156 	.globl _DMA1CFGL
                                    157 	.globl _DMAIRQ
                                    158 	.globl _PSW
                                    159 	.globl _T3CC1
                                    160 	.globl _T3CCTL1
                                    161 	.globl _T3CC0
                                    162 	.globl _T3CCTL0
                                    163 	.globl _T3CTL
                                    164 	.globl _T3CNT
                                    165 	.globl _WDCTL
                                    166 	.globl _MEMCTR
                                    167 	.globl _CLKCONCMD
                                    168 	.globl _U0GCR
                                    169 	.globl _U0UCR
                                    170 	.globl _T2MSEL
                                    171 	.globl _U0BAUD
                                    172 	.globl _U0DBUF
                                    173 	.globl _IRCON
                                    174 	.globl _RFERRF
                                    175 	.globl _SLEEPCMD
                                    176 	.globl _RNDH
                                    177 	.globl _RNDL
                                    178 	.globl _ADCH
                                    179 	.globl _ADCL
                                    180 	.globl _IP1
                                    181 	.globl _IEN1
                                    182 	.globl _ADCCON3
                                    183 	.globl _ADCCON2
                                    184 	.globl _ADCCON1
                                    185 	.globl _ENCCS
                                    186 	.globl _ENCDO
                                    187 	.globl _ENCDI
                                    188 	.globl _T1STAT
                                    189 	.globl _PMUX
                                    190 	.globl _STLOAD
                                    191 	.globl _P2IEN
                                    192 	.globl _P0IEN
                                    193 	.globl _IP0
                                    194 	.globl _IEN0
                                    195 	.globl _T2IRQM
                                    196 	.globl _T2MOVF2
                                    197 	.globl _T2MOVF1
                                    198 	.globl _T2MOVF0
                                    199 	.globl _T2M1
                                    200 	.globl _T2M0
                                    201 	.globl _T2IRQF
                                    202 	.globl _P2
                                    203 	.globl _FMAP
                                    204 	.globl _PSBANK
                                    205 	.globl _CLKCONSTA
                                    206 	.globl _SLEEPSTA
                                    207 	.globl _T2EVTCFG
                                    208 	.globl _S1CON
                                    209 	.globl _IEN2
                                    210 	.globl _S0CON
                                    211 	.globl _ST2
                                    212 	.globl _ST1
                                    213 	.globl _ST0
                                    214 	.globl _T2CTRL
                                    215 	.globl __XPAGE
                                    216 	.globl _MPAGE
                                    217 	.globl _DPS
                                    218 	.globl _RFIRQF1
                                    219 	.globl _P1
                                    220 	.globl _P0INP
                                    221 	.globl _P1IEN
                                    222 	.globl _PICTL
                                    223 	.globl _P2IFG
                                    224 	.globl _P1IFG
                                    225 	.globl _P0IFG
                                    226 	.globl _TCON
                                    227 	.globl _PCON
                                    228 	.globl _U0CSR
                                    229 	.globl _DPH1
                                    230 	.globl _DPL1
                                    231 	.globl _DPH0
                                    232 	.globl _DPL0
                                    233 	.globl _SP
                                    234 	.globl _P0
                                    235 	.globl _osal_get_timeoutEx_PARM_2
                                    236 	.globl _osal_stop_timerEx_PARM_2
                                    237 	.globl _osal_start_reload_timer_PARM_3
                                    238 	.globl _osal_start_reload_timer_PARM_2
                                    239 	.globl _osal_start_timerEx_PARM_3
                                    240 	.globl _osal_start_timerEx_PARM_2
                                    241 	.globl _osalFindTimer_PARM_2
                                    242 	.globl _osalAddTimer_PARM_3
                                    243 	.globl _osalAddTimer_PARM_2
                                    244 	.globl _timerHead
                                    245 	.globl _TXFILTCFG
                                    246 	.globl _RFC_OBS_CTRL2
                                    247 	.globl _RFC_OBS_CTRL1
                                    248 	.globl _RFC_OBS_CTRL0
                                    249 	.globl _CSPT
                                    250 	.globl _CSPZ
                                    251 	.globl _CSPY
                                    252 	.globl _CSPX
                                    253 	.globl _CSPSTAT
                                    254 	.globl _CSPCTRL
                                    255 	.globl _CSPPROG23
                                    256 	.globl _CSPPROG22
                                    257 	.globl _CSPPROG21
                                    258 	.globl _CSPPROG20
                                    259 	.globl _CSPPROG19
                                    260 	.globl _CSPPROG18
                                    261 	.globl _CSPPROG17
                                    262 	.globl _CSPPROG16
                                    263 	.globl _CSPPROG15
                                    264 	.globl _CSPPROG14
                                    265 	.globl _CSPPROG13
                                    266 	.globl _CSPPROG12
                                    267 	.globl _CSPPROG11
                                    268 	.globl _CSPPROG10
                                    269 	.globl _CSPPROG9
                                    270 	.globl _CSPPROG8
                                    271 	.globl _CSPPROG7
                                    272 	.globl _CSPPROG6
                                    273 	.globl _CSPPROG5
                                    274 	.globl _CSPPROG4
                                    275 	.globl _CSPPROG3
                                    276 	.globl _CSPPROG2
                                    277 	.globl _CSPPROG1
                                    278 	.globl _CSPPROG0
                                    279 	.globl _PTEST1
                                    280 	.globl _PTEST0
                                    281 	.globl _ATEST
                                    282 	.globl _DACTEST2
                                    283 	.globl _DACTEST1
                                    284 	.globl _DACTEST0
                                    285 	.globl _MDMTEST1
                                    286 	.globl _MDMTEST0
                                    287 	.globl _ADCTEST2
                                    288 	.globl _ADCTEST1
                                    289 	.globl _ADCTEST0
                                    290 	.globl _AGCCTRL3
                                    291 	.globl _AGCCTRL2
                                    292 	.globl _AGCCTRL1
                                    293 	.globl _AGCCTRL0
                                    294 	.globl _FSCAL3
                                    295 	.globl _FSCAL2
                                    296 	.globl _FSCAL1
                                    297 	.globl _FSCTRL
                                    298 	.globl _RXCTRL
                                    299 	.globl _FREQEST
                                    300 	.globl _MDMCTRL1
                                    301 	.globl _MDMCTRL0
                                    302 	.globl _RFRND
                                    303 	.globl _OPAMPMC
                                    304 	.globl _RFERRM
                                    305 	.globl _RFIRQM1
                                    306 	.globl _RFIRQM0
                                    307 	.globl _TXLAST_PTR
                                    308 	.globl _TXFIRST_PTR
                                    309 	.globl _RXP1_PTR
                                    310 	.globl _RXLAST_PTR
                                    311 	.globl _RXFIRST_PTR
                                    312 	.globl _TXFIFOCNT
                                    313 	.globl _RXFIFOCNT
                                    314 	.globl _RXFIRST
                                    315 	.globl _RSSISTAT
                                    316 	.globl _RSSI
                                    317 	.globl _CCACTRL1
                                    318 	.globl _CCACTRL0
                                    319 	.globl _FSMCTRL
                                    320 	.globl _FIFOPCTRL
                                    321 	.globl _FSMSTAT1
                                    322 	.globl _FSMSTAT0
                                    323 	.globl _TXCTRL
                                    324 	.globl _TXPOWER
                                    325 	.globl _FREQCTRL
                                    326 	.globl _FREQTUNE
                                    327 	.globl _RXMASKCLR
                                    328 	.globl _RXMASKSET
                                    329 	.globl _RXENABLE
                                    330 	.globl _FRMCTRL1
                                    331 	.globl _FRMCTRL0
                                    332 	.globl _SRCEXTEN2
                                    333 	.globl _SRCEXTEN1
                                    334 	.globl _SRCEXTEN0
                                    335 	.globl _SRCSHORTEN2
                                    336 	.globl _SRCSHORTEN1
                                    337 	.globl _SRCSHORTEN0
                                    338 	.globl _SRCMATCH
                                    339 	.globl _FRMFILT1
                                    340 	.globl _FRMFILT0
                                    341 	.globl _IEEE_ADDR
                                    342 	.globl _PANIDL
                                    343 	.globl _PANIDH
                                    344 	.globl _SHORTADDRL
                                    345 	.globl _SHORTADDRH
                                    346 	.globl _USBF5
                                    347 	.globl _USBF4
                                    348 	.globl _USBF3
                                    349 	.globl _USBF2
                                    350 	.globl _USBF1
                                    351 	.globl _USBF0
                                    352 	.globl _USBCNTH
                                    353 	.globl _USBCNTL
                                    354 	.globl _USBCNT0
                                    355 	.globl _USBCSOH
                                    356 	.globl _USBCSOL
                                    357 	.globl _USBMAXO
                                    358 	.globl _USBCSIH
                                    359 	.globl _USBCSIL
                                    360 	.globl _USBCS0
                                    361 	.globl _USBMAXI
                                    362 	.globl _USBCTRL
                                    363 	.globl _USBINDEX
                                    364 	.globl _USBFRMH
                                    365 	.globl _USBFRML
                                    366 	.globl _USBCIE
                                    367 	.globl _USBOIE
                                    368 	.globl _USBIIE
                                    369 	.globl _USBCIF
                                    370 	.globl _USBOIF
                                    371 	.globl _USBIIF
                                    372 	.globl _USBPOW
                                    373 	.globl _USBADDR
                                    374 	.globl _CMPCTL
                                    375 	.globl _OPAMPS
                                    376 	.globl _OPAMPC
                                    377 	.globl _STCV2
                                    378 	.globl _STCV1
                                    379 	.globl _STCV0
                                    380 	.globl _STCS
                                    381 	.globl _STCC
                                    382 	.globl _T1CC4H
                                    383 	.globl _T1CC4L
                                    384 	.globl _T1CC3H
                                    385 	.globl _T1CC3L
                                    386 	.globl _X_T1CC2H
                                    387 	.globl _X_T1CC2L
                                    388 	.globl _X_T1CC1H
                                    389 	.globl _X_T1CC1L
                                    390 	.globl _X_T1CC0H
                                    391 	.globl _X_T1CC0L
                                    392 	.globl _T1CCTL4
                                    393 	.globl _T1CCTL3
                                    394 	.globl _X_T1CCTL2
                                    395 	.globl _X_T1CCTL1
                                    396 	.globl _X_T1CCTL0
                                    397 	.globl _CLD
                                    398 	.globl _IRCTL
                                    399 	.globl _CHIPINFO1
                                    400 	.globl _CHIPINFO0
                                    401 	.globl _FWDATA
                                    402 	.globl _FADDRH
                                    403 	.globl _FADDRL
                                    404 	.globl _FCTL
                                    405 	.globl _IVCTRL
                                    406 	.globl _BATTMON
                                    407 	.globl _SRCRC
                                    408 	.globl _DBGDATA
                                    409 	.globl _TESTREG0
                                    410 	.globl _CHIPID
                                    411 	.globl _CHVER
                                    412 	.globl _OBSSEL5
                                    413 	.globl _OBSSEL4
                                    414 	.globl _OBSSEL3
                                    415 	.globl _OBSSEL2
                                    416 	.globl _OBSSEL1
                                    417 	.globl _OBSSEL0
                                    418 	.globl _I2CIO
                                    419 	.globl _I2CWC
                                    420 	.globl _I2CADDR
                                    421 	.globl _I2CDATA
                                    422 	.globl _I2CSTAT
                                    423 	.globl _I2CCFG
                                    424 	.globl _osalTimerInit
                                    425 	.globl _osalAddTimer
                                    426 	.globl _osalFindTimer
                                    427 	.globl _osalDeleteTimer
                                    428 	.globl _osal_start_timerEx
                                    429 	.globl _osal_start_reload_timer
                                    430 	.globl _osal_stop_timerEx
                                    431 	.globl _osal_get_timeoutEx
                                    432 	.globl _osal_timer_num_active
                                    433 	.globl _osalTimerUpdate
                                    434 	.globl _osal_GetSystemClock
                                    435 ;--------------------------------------------------------
                                    436 ; special function registers
                                    437 ;--------------------------------------------------------
                                    438 	.area RSEG    (ABS,DATA)
      000000                        439 	.org 0x0000
                           000080   440 _P0	=	0x0080
                           000081   441 _SP	=	0x0081
                           000082   442 _DPL0	=	0x0082
                           000083   443 _DPH0	=	0x0083
                           000084   444 _DPL1	=	0x0084
                           000085   445 _DPH1	=	0x0085
                           000086   446 _U0CSR	=	0x0086
                           000087   447 _PCON	=	0x0087
                           000088   448 _TCON	=	0x0088
                           000089   449 _P0IFG	=	0x0089
                           00008A   450 _P1IFG	=	0x008a
                           00008B   451 _P2IFG	=	0x008b
                           00008C   452 _PICTL	=	0x008c
                           00008D   453 _P1IEN	=	0x008d
                           00008F   454 _P0INP	=	0x008f
                           000090   455 _P1	=	0x0090
                           000091   456 _RFIRQF1	=	0x0091
                           000092   457 _DPS	=	0x0092
                           000093   458 _MPAGE	=	0x0093
                           000093   459 __XPAGE	=	0x0093
                           000094   460 _T2CTRL	=	0x0094
                           000095   461 _ST0	=	0x0095
                           000096   462 _ST1	=	0x0096
                           000097   463 _ST2	=	0x0097
                           000098   464 _S0CON	=	0x0098
                           00009A   465 _IEN2	=	0x009a
                           00009B   466 _S1CON	=	0x009b
                           00009C   467 _T2EVTCFG	=	0x009c
                           00009D   468 _SLEEPSTA	=	0x009d
                           00009E   469 _CLKCONSTA	=	0x009e
                           00009F   470 _PSBANK	=	0x009f
                           00009F   471 _FMAP	=	0x009f
                           0000A0   472 _P2	=	0x00a0
                           0000A1   473 _T2IRQF	=	0x00a1
                           0000A2   474 _T2M0	=	0x00a2
                           0000A3   475 _T2M1	=	0x00a3
                           0000A4   476 _T2MOVF0	=	0x00a4
                           0000A5   477 _T2MOVF1	=	0x00a5
                           0000A6   478 _T2MOVF2	=	0x00a6
                           0000A7   479 _T2IRQM	=	0x00a7
                           0000A8   480 _IEN0	=	0x00a8
                           0000A9   481 _IP0	=	0x00a9
                           0000AB   482 _P0IEN	=	0x00ab
                           0000AC   483 _P2IEN	=	0x00ac
                           0000AD   484 _STLOAD	=	0x00ad
                           0000AE   485 _PMUX	=	0x00ae
                           0000AF   486 _T1STAT	=	0x00af
                           0000B1   487 _ENCDI	=	0x00b1
                           0000B2   488 _ENCDO	=	0x00b2
                           0000B3   489 _ENCCS	=	0x00b3
                           0000B4   490 _ADCCON1	=	0x00b4
                           0000B5   491 _ADCCON2	=	0x00b5
                           0000B6   492 _ADCCON3	=	0x00b6
                           0000B8   493 _IEN1	=	0x00b8
                           0000B9   494 _IP1	=	0x00b9
                           0000BA   495 _ADCL	=	0x00ba
                           0000BB   496 _ADCH	=	0x00bb
                           0000BC   497 _RNDL	=	0x00bc
                           0000BD   498 _RNDH	=	0x00bd
                           0000BE   499 _SLEEPCMD	=	0x00be
                           0000BF   500 _RFERRF	=	0x00bf
                           0000C0   501 _IRCON	=	0x00c0
                           0000C1   502 _U0DBUF	=	0x00c1
                           0000C2   503 _U0BAUD	=	0x00c2
                           0000C3   504 _T2MSEL	=	0x00c3
                           0000C4   505 _U0UCR	=	0x00c4
                           0000C5   506 _U0GCR	=	0x00c5
                           0000C6   507 _CLKCONCMD	=	0x00c6
                           0000C7   508 _MEMCTR	=	0x00c7
                           0000C9   509 _WDCTL	=	0x00c9
                           0000CA   510 _T3CNT	=	0x00ca
                           0000CB   511 _T3CTL	=	0x00cb
                           0000CC   512 _T3CCTL0	=	0x00cc
                           0000CD   513 _T3CC0	=	0x00cd
                           0000CE   514 _T3CCTL1	=	0x00ce
                           0000CF   515 _T3CC1	=	0x00cf
                           0000D0   516 _PSW	=	0x00d0
                           0000D1   517 _DMAIRQ	=	0x00d1
                           0000D2   518 _DMA1CFGL	=	0x00d2
                           0000D3   519 _DMA1CFGH	=	0x00d3
                           0000D4   520 _DMA0CFGL	=	0x00d4
                           0000D5   521 _DMA0CFGH	=	0x00d5
                           0000D6   522 _DMAARM	=	0x00d6
                           0000D7   523 _DMAREQ	=	0x00d7
                           0000D8   524 _TIMIF	=	0x00d8
                           0000D9   525 _RFD	=	0x00d9
                           0000DA   526 _T1CC0L	=	0x00da
                           0000DB   527 _T1CC0H	=	0x00db
                           0000DC   528 _T1CC1L	=	0x00dc
                           0000DD   529 _T1CC1H	=	0x00dd
                           0000DE   530 _T1CC2L	=	0x00de
                           0000DF   531 _T1CC2H	=	0x00df
                           0000E0   532 _ACC	=	0x00e0
                           0000E1   533 _RFST	=	0x00e1
                           0000E2   534 _T1CNTL	=	0x00e2
                           0000E3   535 _T1CNTH	=	0x00e3
                           0000E4   536 _T1CTL	=	0x00e4
                           0000E5   537 _T1CCTL0	=	0x00e5
                           0000E6   538 _T1CCTL1	=	0x00e6
                           0000E7   539 _T1CCTL2	=	0x00e7
                           0000E8   540 _IRCON2	=	0x00e8
                           0000E9   541 _RFIRQF0	=	0x00e9
                           0000EA   542 _T4CNT	=	0x00ea
                           0000EB   543 _T4CTL	=	0x00eb
                           0000EC   544 _T4CCTL0	=	0x00ec
                           0000ED   545 _T4CC0	=	0x00ed
                           0000EE   546 _T4CCTL1	=	0x00ee
                           0000EF   547 _T4CC1	=	0x00ef
                           0000F0   548 _B	=	0x00f0
                           0000F1   549 _PERCFG	=	0x00f1
                           0000F2   550 _APCFG	=	0x00f2
                           0000F3   551 _P0SEL	=	0x00f3
                           0000F4   552 _P1SEL	=	0x00f4
                           0000F5   553 _P2SEL	=	0x00f5
                           0000F6   554 _P1INP	=	0x00f6
                           0000F7   555 _P2INP	=	0x00f7
                           0000F8   556 _U1CSR	=	0x00f8
                           0000F9   557 _U1DBUF	=	0x00f9
                           0000FA   558 _U1BAUD	=	0x00fa
                           0000FB   559 _U1UCR	=	0x00fb
                           0000FC   560 _U1GCR	=	0x00fc
                           0000FD   561 _P0DIR	=	0x00fd
                           0000FE   562 _P1DIR	=	0x00fe
                           0000FF   563 _P2DIR	=	0x00ff
                                    564 ;--------------------------------------------------------
                                    565 ; special function bits
                                    566 ;--------------------------------------------------------
                                    567 	.area RSEG    (ABS,DATA)
      000000                        568 	.org 0x0000
                           000080   569 _P0_0	=	0x0080
                           000081   570 _P0_1	=	0x0081
                           000082   571 _P0_2	=	0x0082
                           000083   572 _P0_3	=	0x0083
                           000084   573 _P0_4	=	0x0084
                           000085   574 _P0_5	=	0x0085
                           000086   575 _P0_6	=	0x0086
                           000087   576 _P0_7	=	0x0087
                           000088   577 _IT0	=	0x0088
                           000089   578 _RFERRIF	=	0x0089
                           00008A   579 _IT1	=	0x008a
                           00008B   580 _URX0IF	=	0x008b
                           00008D   581 _ADCIF	=	0x008d
                           00008F   582 _URX1IF	=	0x008f
                           000090   583 _P1_0	=	0x0090
                           000091   584 _P1_1	=	0x0091
                           000092   585 _P1_2	=	0x0092
                           000093   586 _P1_3	=	0x0093
                           000094   587 _P1_4	=	0x0094
                           000095   588 _P1_5	=	0x0095
                           000096   589 _P1_6	=	0x0096
                           000097   590 _P1_7	=	0x0097
                           000098   591 _ENCIF_0	=	0x0098
                           000099   592 _ENCIF_1	=	0x0099
                           0000A0   593 _P2_0	=	0x00a0
                           0000A1   594 _P2_1	=	0x00a1
                           0000A2   595 _P2_2	=	0x00a2
                           0000A3   596 _P2_3	=	0x00a3
                           0000A4   597 _P2_4	=	0x00a4
                           0000A5   598 _P2_5	=	0x00a5
                           0000A6   599 _P2_6	=	0x00a6
                           0000A7   600 _P2_7	=	0x00a7
                           0000A8   601 _RFERRIE	=	0x00a8
                           0000A9   602 _ADCIE	=	0x00a9
                           0000AA   603 _URX0IE	=	0x00aa
                           0000AB   604 _URX1IE	=	0x00ab
                           0000AC   605 _ENCIE	=	0x00ac
                           0000AD   606 _STIE	=	0x00ad
                           0000AF   607 _EA	=	0x00af
                           0000B8   608 _DMAIE	=	0x00b8
                           0000B9   609 _T1IE	=	0x00b9
                           0000BA   610 _T2IE	=	0x00ba
                           0000BB   611 _T3IE	=	0x00bb
                           0000BC   612 _T4IE	=	0x00bc
                           0000BD   613 _P0IE	=	0x00bd
                           0000C0   614 _DMAIF	=	0x00c0
                           0000C1   615 _T1IF	=	0x00c1
                           0000C2   616 _T2IF	=	0x00c2
                           0000C3   617 _T3IF	=	0x00c3
                           0000C4   618 _T4IF	=	0x00c4
                           0000C5   619 _P0IF	=	0x00c5
                           0000C7   620 _STIF	=	0x00c7
                           0000D0   621 _P	=	0x00d0
                           0000D1   622 _F1	=	0x00d1
                           0000D2   623 _OV	=	0x00d2
                           0000D3   624 _RS0	=	0x00d3
                           0000D4   625 _RS1	=	0x00d4
                           0000D5   626 _F0	=	0x00d5
                           0000D6   627 _AC	=	0x00d6
                           0000D7   628 _CY	=	0x00d7
                           0000D8   629 _T3OVFIF	=	0x00d8
                           0000D9   630 _T3CH0IF	=	0x00d9
                           0000DA   631 _T3CH1IF	=	0x00da
                           0000DB   632 _T4OVFIF	=	0x00db
                           0000DC   633 _T4CH0IF	=	0x00dc
                           0000DD   634 _T4CH1IF	=	0x00dd
                           0000DE   635 _OVFIM	=	0x00de
                           0000E0   636 _ACC_0	=	0x00e0
                           0000E1   637 _ACC_1	=	0x00e1
                           0000E2   638 _ACC_2	=	0x00e2
                           0000E3   639 _ACC_3	=	0x00e3
                           0000E4   640 _ACC_4	=	0x00e4
                           0000E5   641 _ACC_5	=	0x00e5
                           0000E6   642 _ACC_6	=	0x00e6
                           0000E7   643 _ACC_7	=	0x00e7
                           0000E8   644 _P2IF	=	0x00e8
                           0000E9   645 _UTX0IF	=	0x00e9
                           0000EA   646 _UTX1IF	=	0x00ea
                           0000EB   647 _P1IF	=	0x00eb
                           0000EC   648 _WDTIF	=	0x00ec
                           0000F0   649 _B_0	=	0x00f0
                           0000F1   650 _B_1	=	0x00f1
                           0000F2   651 _B_2	=	0x00f2
                           0000F3   652 _B_3	=	0x00f3
                           0000F4   653 _B_4	=	0x00f4
                           0000F5   654 _B_5	=	0x00f5
                           0000F6   655 _B_6	=	0x00f6
                           0000F7   656 _B_7	=	0x00f7
                           0000F8   657 _ACTIVE	=	0x00f8
                           0000F9   658 _TX_BYTE	=	0x00f9
                           0000FA   659 _RX_BYTE	=	0x00fa
                           0000FB   660 _ERR	=	0x00fb
                           0000FC   661 _FE	=	0x00fc
                           0000FD   662 _SLAVE	=	0x00fd
                           0000FE   663 _RE	=	0x00fe
                           0000FF   664 _MODE	=	0x00ff
                                    665 ;--------------------------------------------------------
                                    666 ; overlayable register banks
                                    667 ;--------------------------------------------------------
                                    668 	.area REG_BANK_0	(REL,OVR,DATA)
      000000                        669 	.ds 8
                                    670 ;--------------------------------------------------------
                                    671 ; internal ram data
                                    672 ;--------------------------------------------------------
                                    673 	.area DSEG    (DATA)
      000000                        674 _osalAddTimer_sloc0_1_0:
      000000                        675 	.ds 3
      000003                        676 _osalTimerUpdate_sloc0_1_0:
      000003                        677 	.ds 4
                                    678 ;--------------------------------------------------------
                                    679 ; overlayable items in internal ram 
                                    680 ;--------------------------------------------------------
                                    681 ;--------------------------------------------------------
                                    682 ; indirectly addressable internal ram data
                                    683 ;--------------------------------------------------------
                                    684 	.area ISEG    (DATA)
                                    685 ;--------------------------------------------------------
                                    686 ; absolute internal ram data
                                    687 ;--------------------------------------------------------
                                    688 	.area IABS    (ABS,DATA)
                                    689 	.area IABS    (ABS,DATA)
                                    690 ;--------------------------------------------------------
                                    691 ; bit data
                                    692 ;--------------------------------------------------------
                                    693 	.area BSEG    (BIT)
                                    694 ;--------------------------------------------------------
                                    695 ; paged external ram data
                                    696 ;--------------------------------------------------------
                                    697 	.area PSEG    (PAG,XDATA)
                                    698 ;--------------------------------------------------------
                                    699 ; external ram data
                                    700 ;--------------------------------------------------------
                                    701 	.area XSEG    (XDATA)
                           006230   702 _I2CCFG	=	0x6230
                           006231   703 _I2CSTAT	=	0x6231
                           006232   704 _I2CDATA	=	0x6232
                           006233   705 _I2CADDR	=	0x6233
                           006234   706 _I2CWC	=	0x6234
                           006235   707 _I2CIO	=	0x6235
                           006243   708 _OBSSEL0	=	0x6243
                           006244   709 _OBSSEL1	=	0x6244
                           006245   710 _OBSSEL2	=	0x6245
                           006246   711 _OBSSEL3	=	0x6246
                           006247   712 _OBSSEL4	=	0x6247
                           006248   713 _OBSSEL5	=	0x6248
                           006249   714 _CHVER	=	0x6249
                           00624A   715 _CHIPID	=	0x624a
                           00624B   716 _TESTREG0	=	0x624b
                           006260   717 _DBGDATA	=	0x6260
                           006262   718 _SRCRC	=	0x6262
                           006264   719 _BATTMON	=	0x6264
                           006265   720 _IVCTRL	=	0x6265
                           006270   721 _FCTL	=	0x6270
                           006271   722 _FADDRL	=	0x6271
                           006272   723 _FADDRH	=	0x6272
                           006273   724 _FWDATA	=	0x6273
                           006276   725 _CHIPINFO0	=	0x6276
                           006277   726 _CHIPINFO1	=	0x6277
                           006281   727 _IRCTL	=	0x6281
                           006290   728 _CLD	=	0x6290
                           0062A0   729 _X_T1CCTL0	=	0x62a0
                           0062A1   730 _X_T1CCTL1	=	0x62a1
                           0062A2   731 _X_T1CCTL2	=	0x62a2
                           0062A3   732 _T1CCTL3	=	0x62a3
                           0062A4   733 _T1CCTL4	=	0x62a4
                           0062A6   734 _X_T1CC0L	=	0x62a6
                           0062A7   735 _X_T1CC0H	=	0x62a7
                           0062A8   736 _X_T1CC1L	=	0x62a8
                           0062A9   737 _X_T1CC1H	=	0x62a9
                           0062AA   738 _X_T1CC2L	=	0x62aa
                           0062AB   739 _X_T1CC2H	=	0x62ab
                           0062AC   740 _T1CC3L	=	0x62ac
                           0062AD   741 _T1CC3H	=	0x62ad
                           0062AE   742 _T1CC4L	=	0x62ae
                           0062AF   743 _T1CC4H	=	0x62af
                           0062B0   744 _STCC	=	0x62b0
                           0062B1   745 _STCS	=	0x62b1
                           0062B2   746 _STCV0	=	0x62b2
                           0062B3   747 _STCV1	=	0x62b3
                           0062B4   748 _STCV2	=	0x62b4
                           0062C0   749 _OPAMPC	=	0x62c0
                           0062C1   750 _OPAMPS	=	0x62c1
                           0062D0   751 _CMPCTL	=	0x62d0
                           006200   752 _USBADDR	=	0x6200
                           006201   753 _USBPOW	=	0x6201
                           006202   754 _USBIIF	=	0x6202
                           006204   755 _USBOIF	=	0x6204
                           006206   756 _USBCIF	=	0x6206
                           006207   757 _USBIIE	=	0x6207
                           006209   758 _USBOIE	=	0x6209
                           00620B   759 _USBCIE	=	0x620b
                           00620C   760 _USBFRML	=	0x620c
                           00620D   761 _USBFRMH	=	0x620d
                           00620E   762 _USBINDEX	=	0x620e
                           00620F   763 _USBCTRL	=	0x620f
                           006210   764 _USBMAXI	=	0x6210
                           006211   765 _USBCS0	=	0x6211
                           006211   766 _USBCSIL	=	0x6211
                           006212   767 _USBCSIH	=	0x6212
                           006213   768 _USBMAXO	=	0x6213
                           006214   769 _USBCSOL	=	0x6214
                           006215   770 _USBCSOH	=	0x6215
                           006216   771 _USBCNT0	=	0x6216
                           006216   772 _USBCNTL	=	0x6216
                           006217   773 _USBCNTH	=	0x6217
                           006220   774 _USBF0	=	0x6220
                           006222   775 _USBF1	=	0x6222
                           006224   776 _USBF2	=	0x6224
                           006226   777 _USBF3	=	0x6226
                           006228   778 _USBF4	=	0x6228
                           00622A   779 _USBF5	=	0x622a
                           006174   780 _SHORTADDRH	=	0x6174
                           006175   781 _SHORTADDRL	=	0x6175
                           006172   782 _PANIDH	=	0x6172
                           006173   783 _PANIDL	=	0x6173
                           00616A   784 _IEEE_ADDR	=	0x616a
                           006180   785 _FRMFILT0	=	0x6180
                           006181   786 _FRMFILT1	=	0x6181
                           006182   787 _SRCMATCH	=	0x6182
                           006183   788 _SRCSHORTEN0	=	0x6183
                           006184   789 _SRCSHORTEN1	=	0x6184
                           006185   790 _SRCSHORTEN2	=	0x6185
                           006186   791 _SRCEXTEN0	=	0x6186
                           006187   792 _SRCEXTEN1	=	0x6187
                           006188   793 _SRCEXTEN2	=	0x6188
                           006189   794 _FRMCTRL0	=	0x6189
                           00618A   795 _FRMCTRL1	=	0x618a
                           00618B   796 _RXENABLE	=	0x618b
                           00618C   797 _RXMASKSET	=	0x618c
                           00618D   798 _RXMASKCLR	=	0x618d
                           00618E   799 _FREQTUNE	=	0x618e
                           00618F   800 _FREQCTRL	=	0x618f
                           006190   801 _TXPOWER	=	0x6190
                           006191   802 _TXCTRL	=	0x6191
                           006192   803 _FSMSTAT0	=	0x6192
                           006193   804 _FSMSTAT1	=	0x6193
                           006194   805 _FIFOPCTRL	=	0x6194
                           006195   806 _FSMCTRL	=	0x6195
                           006196   807 _CCACTRL0	=	0x6196
                           006197   808 _CCACTRL1	=	0x6197
                           006198   809 _RSSI	=	0x6198
                           006199   810 _RSSISTAT	=	0x6199
                           00619A   811 _RXFIRST	=	0x619a
                           00619B   812 _RXFIFOCNT	=	0x619b
                           00619C   813 _TXFIFOCNT	=	0x619c
                           00619D   814 _RXFIRST_PTR	=	0x619d
                           00619E   815 _RXLAST_PTR	=	0x619e
                           00619F   816 _RXP1_PTR	=	0x619f
                           0061A1   817 _TXFIRST_PTR	=	0x61a1
                           0061A2   818 _TXLAST_PTR	=	0x61a2
                           0061A3   819 _RFIRQM0	=	0x61a3
                           0061A4   820 _RFIRQM1	=	0x61a4
                           0061A5   821 _RFERRM	=	0x61a5
                           0061A6   822 _OPAMPMC	=	0x61a6
                           0061A7   823 _RFRND	=	0x61a7
                           0061A8   824 _MDMCTRL0	=	0x61a8
                           0061A9   825 _MDMCTRL1	=	0x61a9
                           0061AA   826 _FREQEST	=	0x61aa
                           0061AB   827 _RXCTRL	=	0x61ab
                           0061AC   828 _FSCTRL	=	0x61ac
                           0061AE   829 _FSCAL1	=	0x61ae
                           0061AF   830 _FSCAL2	=	0x61af
                           0061B0   831 _FSCAL3	=	0x61b0
                           0061B1   832 _AGCCTRL0	=	0x61b1
                           0061B2   833 _AGCCTRL1	=	0x61b2
                           0061B3   834 _AGCCTRL2	=	0x61b3
                           0061B4   835 _AGCCTRL3	=	0x61b4
                           0061B5   836 _ADCTEST0	=	0x61b5
                           0061B6   837 _ADCTEST1	=	0x61b6
                           0061B7   838 _ADCTEST2	=	0x61b7
                           0061B8   839 _MDMTEST0	=	0x61b8
                           0061B9   840 _MDMTEST1	=	0x61b9
                           0061BA   841 _DACTEST0	=	0x61ba
                           0061BB   842 _DACTEST1	=	0x61bb
                           0061BC   843 _DACTEST2	=	0x61bc
                           0061BD   844 _ATEST	=	0x61bd
                           0061BE   845 _PTEST0	=	0x61be
                           0061BF   846 _PTEST1	=	0x61bf
                           0061C0   847 _CSPPROG0	=	0x61c0
                           0061C1   848 _CSPPROG1	=	0x61c1
                           0061C2   849 _CSPPROG2	=	0x61c2
                           0061C3   850 _CSPPROG3	=	0x61c3
                           0061C4   851 _CSPPROG4	=	0x61c4
                           0061C5   852 _CSPPROG5	=	0x61c5
                           0061C6   853 _CSPPROG6	=	0x61c6
                           0061C7   854 _CSPPROG7	=	0x61c7
                           0061C8   855 _CSPPROG8	=	0x61c8
                           0061C9   856 _CSPPROG9	=	0x61c9
                           0061CA   857 _CSPPROG10	=	0x61ca
                           0061CB   858 _CSPPROG11	=	0x61cb
                           0061CC   859 _CSPPROG12	=	0x61cc
                           0061CD   860 _CSPPROG13	=	0x61cd
                           0061CE   861 _CSPPROG14	=	0x61ce
                           0061CF   862 _CSPPROG15	=	0x61cf
                           0061D0   863 _CSPPROG16	=	0x61d0
                           0061D1   864 _CSPPROG17	=	0x61d1
                           0061D2   865 _CSPPROG18	=	0x61d2
                           0061D3   866 _CSPPROG19	=	0x61d3
                           0061D4   867 _CSPPROG20	=	0x61d4
                           0061D5   868 _CSPPROG21	=	0x61d5
                           0061D6   869 _CSPPROG22	=	0x61d6
                           0061D7   870 _CSPPROG23	=	0x61d7
                           0061E0   871 _CSPCTRL	=	0x61e0
                           0061E1   872 _CSPSTAT	=	0x61e1
                           0061E2   873 _CSPX	=	0x61e2
                           0061E3   874 _CSPY	=	0x61e3
                           0061E4   875 _CSPZ	=	0x61e4
                           0061E5   876 _CSPT	=	0x61e5
                           0061EB   877 _RFC_OBS_CTRL0	=	0x61eb
                           0061EC   878 _RFC_OBS_CTRL1	=	0x61ec
                           0061ED   879 _RFC_OBS_CTRL2	=	0x61ed
                           0061FA   880 _TXFILTCFG	=	0x61fa
      000000                        881 _timerHead::
      000000                        882 	.ds 3
      000003                        883 _osal_systemClock:
      000003                        884 	.ds 4
      000007                        885 _osalAddTimer_PARM_2:
      000007                        886 	.ds 2
      000009                        887 _osalAddTimer_PARM_3:
      000009                        888 	.ds 4
      00000D                        889 _osalAddTimer_task_id_1_88:
      00000D                        890 	.ds 1
      00000E                        891 _osalAddTimer_newTimer_1_89:
      00000E                        892 	.ds 3
      000011                        893 _osalAddTimer_srchTimer_1_89:
      000011                        894 	.ds 3
      000014                        895 _osalFindTimer_PARM_2:
      000014                        896 	.ds 2
      000016                        897 _osalFindTimer_task_id_1_97:
      000016                        898 	.ds 1
      000017                        899 _osalFindTimer_srchTimer_1_98:
      000017                        900 	.ds 3
      00001A                        901 _osalDeleteTimer_rmTimer_1_101:
      00001A                        902 	.ds 3
      00001D                        903 _osal_start_timerEx_PARM_2:
      00001D                        904 	.ds 2
      00001F                        905 _osal_start_timerEx_PARM_3:
      00001F                        906 	.ds 4
      000023                        907 _osal_start_timerEx_taskID_1_104:
      000023                        908 	.ds 1
      000024                        909 _osal_start_reload_timer_PARM_2:
      000024                        910 	.ds 2
      000026                        911 _osal_start_reload_timer_PARM_3:
      000026                        912 	.ds 4
      00002A                        913 _osal_start_reload_timer_taskID_1_106:
      00002A                        914 	.ds 1
      00002B                        915 _osal_start_reload_timer_intState_1_107:
      00002B                        916 	.ds 1
      00002C                        917 _osal_start_reload_timer_newTimer_1_107:
      00002C                        918 	.ds 3
      00002F                        919 _osal_stop_timerEx_PARM_2:
      00002F                        920 	.ds 2
      000031                        921 _osal_stop_timerEx_task_id_1_112:
      000031                        922 	.ds 1
      000032                        923 _osal_stop_timerEx_intState_1_113:
      000032                        924 	.ds 1
      000033                        925 _osal_stop_timerEx_foundTimer_1_113:
      000033                        926 	.ds 3
      000036                        927 _osal_get_timeoutEx_PARM_2:
      000036                        928 	.ds 2
      000038                        929 _osal_get_timeoutEx_task_id_1_118:
      000038                        930 	.ds 1
      000039                        931 _osal_get_timeoutEx_intState_1_119:
      000039                        932 	.ds 1
      00003A                        933 _osal_get_timeoutEx_rtrn_1_119:
      00003A                        934 	.ds 4
      00003E                        935 _osal_get_timeoutEx_tmr_1_119:
      00003E                        936 	.ds 3
      000041                        937 _osal_timer_num_active_intState_1_125:
      000041                        938 	.ds 1
      000042                        939 _osal_timer_num_active_num_timers_1_125:
      000042                        940 	.ds 1
      000043                        941 _osal_timer_num_active_srchTimer_1_125:
      000043                        942 	.ds 3
      000046                        943 _osalTimerUpdate_updateTime_1_130:
      000046                        944 	.ds 4
      00004A                        945 _osalTimerUpdate_srchTimer_1_131:
      00004A                        946 	.ds 3
      00004D                        947 _osalTimerUpdate_prevTimer_1_131:
      00004D                        948 	.ds 3
      000050                        949 _osalTimerUpdate_timeUnion_1_131:
      000050                        950 	.ds 4
      000054                        951 _osalTimerUpdate_freeTimer_3_133:
      000054                        952 	.ds 3
                                    953 ;--------------------------------------------------------
                                    954 ; absolute external ram data
                                    955 ;--------------------------------------------------------
                                    956 	.area XABS    (ABS,XDATA)
                                    957 ;--------------------------------------------------------
                                    958 ; external initialized ram data
                                    959 ;--------------------------------------------------------
                                    960 	.area HOME    (CODE)
                                    961 	.area GSINIT0 (CODE)
                                    962 	.area GSINIT1 (CODE)
                                    963 	.area GSINIT2 (CODE)
                                    964 	.area GSINIT3 (CODE)
                                    965 	.area GSINIT4 (CODE)
                                    966 	.area GSINIT5 (CODE)
                                    967 	.area GSINIT  (CODE)
                                    968 	.area GSFINAL (CODE)
                                    969 	.area CSEG    (CODE)
                                    970 ;--------------------------------------------------------
                                    971 ; global & static initialisations
                                    972 ;--------------------------------------------------------
                                    973 	.area HOME    (CODE)
                                    974 	.area GSINIT  (CODE)
                                    975 	.area GSFINAL (CODE)
                                    976 	.area GSINIT  (CODE)
                                    977 ;--------------------------------------------------------
                                    978 ; Home
                                    979 ;--------------------------------------------------------
                                    980 	.area HOME    (CODE)
                                    981 	.area HOME    (CODE)
                                    982 ;--------------------------------------------------------
                                    983 ; code
                                    984 ;--------------------------------------------------------
                                    985 	.area CSEG    (CODE)
                                    986 ;------------------------------------------------------------
                                    987 ;Allocation info for local variables in function 'osalTimerInit'
                                    988 ;------------------------------------------------------------
                                    989 ;	../osal/common/OSAL_Timers.c:118: void osalTimerInit( void )
                                    990 ;	-----------------------------------------
                                    991 ;	 function osalTimerInit
                                    992 ;	-----------------------------------------
      000000                        993 _osalTimerInit:
                           000007   994 	ar7 = 0x07
                           000006   995 	ar6 = 0x06
                           000005   996 	ar5 = 0x05
                           000004   997 	ar4 = 0x04
                           000003   998 	ar3 = 0x03
                           000002   999 	ar2 = 0x02
                           000001  1000 	ar1 = 0x01
                           000000  1001 	ar0 = 0x00
                                   1002 ;	../osal/common/OSAL_Timers.c:120: osal_systemClock = 0;
      000000 90r00r03         [24] 1003 	mov	dptr,#_osal_systemClock
      000003 74 00            [12] 1004 	mov	a,#0x00
      000005 F0               [24] 1005 	movx	@dptr,a
      000006 A3               [24] 1006 	inc	dptr
      000007 F0               [24] 1007 	movx	@dptr,a
      000008 A3               [24] 1008 	inc	dptr
      000009 F0               [24] 1009 	movx	@dptr,a
      00000A A3               [24] 1010 	inc	dptr
      00000B F0               [24] 1011 	movx	@dptr,a
      00000C                       1012 00101$:
      00000C 22               [24] 1013 	ret
                                   1014 ;------------------------------------------------------------
                                   1015 ;Allocation info for local variables in function 'osalAddTimer'
                                   1016 ;------------------------------------------------------------
                                   1017 ;sloc0                     Allocated with name '_osalAddTimer_sloc0_1_0'
                                   1018 ;event_flag                Allocated with name '_osalAddTimer_PARM_2'
                                   1019 ;timeout                   Allocated with name '_osalAddTimer_PARM_3'
                                   1020 ;task_id                   Allocated with name '_osalAddTimer_task_id_1_88'
                                   1021 ;newTimer                  Allocated with name '_osalAddTimer_newTimer_1_89'
                                   1022 ;srchTimer                 Allocated with name '_osalAddTimer_srchTimer_1_89'
                                   1023 ;------------------------------------------------------------
                                   1024 ;	../osal/common/OSAL_Timers.c:135: osalTimerRec_t * osalAddTimer( uint8 task_id, uint16 event_flag, uint32 timeout )
                                   1025 ;	-----------------------------------------
                                   1026 ;	 function osalAddTimer
                                   1027 ;	-----------------------------------------
      00000D                       1028 _osalAddTimer:
      00000D E5 82            [12] 1029 	mov	a,dpl
      00000F 90r00r0D         [24] 1030 	mov	dptr,#_osalAddTimer_task_id_1_88
      000012 F0               [24] 1031 	movx	@dptr,a
                                   1032 ;	../osal/common/OSAL_Timers.c:142: newTimer = osalFindTimer( task_id, event_flag );
      000013 E0               [24] 1033 	movx	a,@dptr
      000014 FF               [12] 1034 	mov	r7,a
      000015 90r00r07         [24] 1035 	mov	dptr,#_osalAddTimer_PARM_2
      000018 E0               [24] 1036 	movx	a,@dptr
      000019 FD               [12] 1037 	mov	r5,a
      00001A A3               [24] 1038 	inc	dptr
      00001B E0               [24] 1039 	movx	a,@dptr
      00001C FE               [12] 1040 	mov	r6,a
      00001D 90r00r14         [24] 1041 	mov	dptr,#_osalFindTimer_PARM_2
      000020 ED               [12] 1042 	mov	a,r5
      000021 F0               [24] 1043 	movx	@dptr,a
      000022 EE               [12] 1044 	mov	a,r6
      000023 A3               [24] 1045 	inc	dptr
      000024 F0               [24] 1046 	movx	@dptr,a
      000025 8F 82            [24] 1047 	mov	dpl,r7
      000027 12r02r36         [24] 1048 	lcall	_osalFindTimer
      00002A AD 82            [24] 1049 	mov	r5,dpl
      00002C AE 83            [24] 1050 	mov	r6,dph
      00002E AF F0            [24] 1051 	mov	r7,b
      000030 90r00r0E         [24] 1052 	mov	dptr,#_osalAddTimer_newTimer_1_89
      000033 ED               [12] 1053 	mov	a,r5
      000034 F0               [24] 1054 	movx	@dptr,a
      000035 EE               [12] 1055 	mov	a,r6
      000036 A3               [24] 1056 	inc	dptr
      000037 F0               [24] 1057 	movx	@dptr,a
      000038 EF               [12] 1058 	mov	a,r7
      000039 A3               [24] 1059 	inc	dptr
      00003A F0               [24] 1060 	movx	@dptr,a
                                   1061 ;	../osal/common/OSAL_Timers.c:143: if ( newTimer )
      00003B ED               [12] 1062 	mov	a,r5
      00003C 4E               [12] 1063 	orl	a,r6
      00003D 70 03            [24] 1064 	jnz	00130$
      00003F 02r00r8C         [24] 1065 	ljmp	00111$
      000042                       1066 00130$:
                                   1067 ;	../osal/common/OSAL_Timers.c:146: newTimer->timeout.time32 = timeout;
      000042 90r00r0E         [24] 1068 	mov	dptr,#_osalAddTimer_newTimer_1_89
      000045 E0               [24] 1069 	movx	a,@dptr
      000046 FD               [12] 1070 	mov	r5,a
      000047 A3               [24] 1071 	inc	dptr
      000048 E0               [24] 1072 	movx	a,@dptr
      000049 FE               [12] 1073 	mov	r6,a
      00004A A3               [24] 1074 	inc	dptr
      00004B E0               [24] 1075 	movx	a,@dptr
      00004C FF               [12] 1076 	mov	r7,a
      00004D 74 03            [12] 1077 	mov	a,#0x03
      00004F 2D               [12] 1078 	add	a,r5
      000050 F5*00            [12] 1079 	mov	_osalAddTimer_sloc0_1_0,a
      000052 74 00            [12] 1080 	mov	a,#0x00
      000054 3E               [12] 1081 	addc	a,r6
      000055 F5*01            [12] 1082 	mov	(_osalAddTimer_sloc0_1_0 + 1),a
      000057 8F*02            [24] 1083 	mov	(_osalAddTimer_sloc0_1_0 + 2),r7
      000059 90r00r09         [24] 1084 	mov	dptr,#_osalAddTimer_PARM_3
      00005C E0               [24] 1085 	movx	a,@dptr
      00005D F8               [12] 1086 	mov	r0,a
      00005E A3               [24] 1087 	inc	dptr
      00005F E0               [24] 1088 	movx	a,@dptr
      000060 F9               [12] 1089 	mov	r1,a
      000061 A3               [24] 1090 	inc	dptr
      000062 E0               [24] 1091 	movx	a,@dptr
      000063 FB               [12] 1092 	mov	r3,a
      000064 A3               [24] 1093 	inc	dptr
      000065 E0               [24] 1094 	movx	a,@dptr
      000066 FC               [12] 1095 	mov	r4,a
      000067 85*00 82         [24] 1096 	mov	dpl,_osalAddTimer_sloc0_1_0
      00006A 85*01 83         [24] 1097 	mov	dph,(_osalAddTimer_sloc0_1_0 + 1)
      00006D 85*02 F0         [24] 1098 	mov	b,(_osalAddTimer_sloc0_1_0 + 2)
      000070 E8               [12] 1099 	mov	a,r0
      000071 12r00r00         [24] 1100 	lcall	__gptrput
      000074 A3               [24] 1101 	inc	dptr
      000075 E9               [12] 1102 	mov	a,r1
      000076 12r00r00         [24] 1103 	lcall	__gptrput
      000079 A3               [24] 1104 	inc	dptr
      00007A EB               [12] 1105 	mov	a,r3
      00007B 12r00r00         [24] 1106 	lcall	__gptrput
      00007E A3               [24] 1107 	inc	dptr
      00007F EC               [12] 1108 	mov	a,r4
      000080 12r00r00         [24] 1109 	lcall	__gptrput
                                   1110 ;	../osal/common/OSAL_Timers.c:148: return ( newTimer );
      000083 8D 82            [24] 1111 	mov	dpl,r5
      000085 8E 83            [24] 1112 	mov	dph,r6
      000087 8F F0            [24] 1113 	mov	b,r7
      000089 02r02r35         [24] 1114 	ljmp	00113$
      00008C                       1115 00111$:
                                   1116 ;	../osal/common/OSAL_Timers.c:153: newTimer = osal_mem_alloc( sizeof( osalTimerRec_t ) );
      00008C 75 82 0E         [24] 1117 	mov	dpl,#0x0E
      00008F 75 83 00         [24] 1118 	mov	dph,#0x00
      000092 12r00r00         [24] 1119 	lcall	_osal_mem_alloc
      000095 AD 82            [24] 1120 	mov	r5,dpl
      000097 AE 83            [24] 1121 	mov	r6,dph
      000099 AF F0            [24] 1122 	mov	r7,b
      00009B 90r00r0E         [24] 1123 	mov	dptr,#_osalAddTimer_newTimer_1_89
      00009E ED               [12] 1124 	mov	a,r5
      00009F F0               [24] 1125 	movx	@dptr,a
      0000A0 EE               [12] 1126 	mov	a,r6
      0000A1 A3               [24] 1127 	inc	dptr
      0000A2 F0               [24] 1128 	movx	@dptr,a
      0000A3 EF               [12] 1129 	mov	a,r7
      0000A4 A3               [24] 1130 	inc	dptr
      0000A5 F0               [24] 1131 	movx	@dptr,a
                                   1132 ;	../osal/common/OSAL_Timers.c:159: if ( newTimer )
      0000A6 ED               [12] 1133 	mov	a,r5
      0000A7 4E               [12] 1134 	orl	a,r6
      0000A8 70 03            [24] 1135 	jnz	00131$
      0000AA 02r02r2C         [24] 1136 	ljmp	00108$
      0000AD                       1137 00131$:
                                   1138 ;	../osal/common/OSAL_Timers.c:162: newTimer->event_flag = event_flag;
      0000AD 90r00r0E         [24] 1139 	mov	dptr,#_osalAddTimer_newTimer_1_89
      0000B0 E0               [24] 1140 	movx	a,@dptr
      0000B1 FD               [12] 1141 	mov	r5,a
      0000B2 A3               [24] 1142 	inc	dptr
      0000B3 E0               [24] 1143 	movx	a,@dptr
      0000B4 FE               [12] 1144 	mov	r6,a
      0000B5 A3               [24] 1145 	inc	dptr
      0000B6 E0               [24] 1146 	movx	a,@dptr
      0000B7 FF               [12] 1147 	mov	r7,a
      0000B8 74 07            [12] 1148 	mov	a,#0x07
      0000BA 2D               [12] 1149 	add	a,r5
      0000BB FA               [12] 1150 	mov	r2,a
      0000BC 74 00            [12] 1151 	mov	a,#0x00
      0000BE 3E               [12] 1152 	addc	a,r6
      0000BF FB               [12] 1153 	mov	r3,a
      0000C0 8F 04            [24] 1154 	mov	ar4,r7
      0000C2 90r00r07         [24] 1155 	mov	dptr,#_osalAddTimer_PARM_2
      0000C5 E0               [24] 1156 	movx	a,@dptr
      0000C6 F8               [12] 1157 	mov	r0,a
      0000C7 A3               [24] 1158 	inc	dptr
      0000C8 E0               [24] 1159 	movx	a,@dptr
      0000C9 F9               [12] 1160 	mov	r1,a
      0000CA 8A 82            [24] 1161 	mov	dpl,r2
      0000CC 8B 83            [24] 1162 	mov	dph,r3
      0000CE 8C F0            [24] 1163 	mov	b,r4
      0000D0 E8               [12] 1164 	mov	a,r0
      0000D1 12r00r00         [24] 1165 	lcall	__gptrput
      0000D4 A3               [24] 1166 	inc	dptr
      0000D5 E9               [12] 1167 	mov	a,r1
      0000D6 12r00r00         [24] 1168 	lcall	__gptrput
                                   1169 ;	../osal/common/OSAL_Timers.c:163: newTimer->task_id = task_id;
      0000D9 74 09            [12] 1170 	mov	a,#0x09
      0000DB 2D               [12] 1171 	add	a,r5
      0000DC FA               [12] 1172 	mov	r2,a
      0000DD 74 00            [12] 1173 	mov	a,#0x00
      0000DF 3E               [12] 1174 	addc	a,r6
      0000E0 FB               [12] 1175 	mov	r3,a
      0000E1 8F 04            [24] 1176 	mov	ar4,r7
      0000E3 90r00r0D         [24] 1177 	mov	dptr,#_osalAddTimer_task_id_1_88
      0000E6 E0               [24] 1178 	movx	a,@dptr
      0000E7 F9               [12] 1179 	mov	r1,a
      0000E8 8A 82            [24] 1180 	mov	dpl,r2
      0000EA 8B 83            [24] 1181 	mov	dph,r3
      0000EC 8C F0            [24] 1182 	mov	b,r4
      0000EE E9               [12] 1183 	mov	a,r1
      0000EF 12r00r00         [24] 1184 	lcall	__gptrput
                                   1185 ;	../osal/common/OSAL_Timers.c:165: newTimer->timeout.time32 = timeout;
      0000F2 74 03            [12] 1186 	mov	a,#0x03
      0000F4 2D               [12] 1187 	add	a,r5
      0000F5 F5*00            [12] 1188 	mov	_osalAddTimer_sloc0_1_0,a
      0000F7 74 00            [12] 1189 	mov	a,#0x00
      0000F9 3E               [12] 1190 	addc	a,r6
      0000FA F5*01            [12] 1191 	mov	(_osalAddTimer_sloc0_1_0 + 1),a
      0000FC 8F*02            [24] 1192 	mov	(_osalAddTimer_sloc0_1_0 + 2),r7
      0000FE 90r00r09         [24] 1193 	mov	dptr,#_osalAddTimer_PARM_3
      000101 E0               [24] 1194 	movx	a,@dptr
      000102 F8               [12] 1195 	mov	r0,a
      000103 A3               [24] 1196 	inc	dptr
      000104 E0               [24] 1197 	movx	a,@dptr
      000105 F9               [12] 1198 	mov	r1,a
      000106 A3               [24] 1199 	inc	dptr
      000107 E0               [24] 1200 	movx	a,@dptr
      000108 FB               [12] 1201 	mov	r3,a
      000109 A3               [24] 1202 	inc	dptr
      00010A E0               [24] 1203 	movx	a,@dptr
      00010B FC               [12] 1204 	mov	r4,a
      00010C 85*00 82         [24] 1205 	mov	dpl,_osalAddTimer_sloc0_1_0
      00010F 85*01 83         [24] 1206 	mov	dph,(_osalAddTimer_sloc0_1_0 + 1)
      000112 85*02 F0         [24] 1207 	mov	b,(_osalAddTimer_sloc0_1_0 + 2)
      000115 E8               [12] 1208 	mov	a,r0
      000116 12r00r00         [24] 1209 	lcall	__gptrput
      000119 A3               [24] 1210 	inc	dptr
      00011A E9               [12] 1211 	mov	a,r1
      00011B 12r00r00         [24] 1212 	lcall	__gptrput
      00011E A3               [24] 1213 	inc	dptr
      00011F EB               [12] 1214 	mov	a,r3
      000120 12r00r00         [24] 1215 	lcall	__gptrput
      000123 A3               [24] 1216 	inc	dptr
      000124 EC               [12] 1217 	mov	a,r4
      000125 12r00r00         [24] 1218 	lcall	__gptrput
                                   1219 ;	../osal/common/OSAL_Timers.c:166: newTimer->next = (void *)NULL;
      000128 8D 82            [24] 1220 	mov	dpl,r5
      00012A 8E 83            [24] 1221 	mov	dph,r6
      00012C 8F F0            [24] 1222 	mov	b,r7
      00012E 74 00            [12] 1223 	mov	a,#0x00
      000130 12r00r00         [24] 1224 	lcall	__gptrput
      000133 A3               [24] 1225 	inc	dptr
      000134 12r00r00         [24] 1226 	lcall	__gptrput
      000137 A3               [24] 1227 	inc	dptr
      000138 12r00r00         [24] 1228 	lcall	__gptrput
                                   1229 ;	../osal/common/OSAL_Timers.c:167: newTimer->reloadTimeout = 0;
      00013B 74 0A            [12] 1230 	mov	a,#0x0A
      00013D 2D               [12] 1231 	add	a,r5
      00013E FD               [12] 1232 	mov	r5,a
      00013F 74 00            [12] 1233 	mov	a,#0x00
      000141 3E               [12] 1234 	addc	a,r6
      000142 FE               [12] 1235 	mov	r6,a
      000143 8D 82            [24] 1236 	mov	dpl,r5
      000145 8E 83            [24] 1237 	mov	dph,r6
      000147 8F F0            [24] 1238 	mov	b,r7
      000149 74 00            [12] 1239 	mov	a,#0x00
      00014B 12r00r00         [24] 1240 	lcall	__gptrput
      00014E A3               [24] 1241 	inc	dptr
      00014F 12r00r00         [24] 1242 	lcall	__gptrput
      000152 A3               [24] 1243 	inc	dptr
      000153 12r00r00         [24] 1244 	lcall	__gptrput
      000156 A3               [24] 1245 	inc	dptr
      000157 12r00r00         [24] 1246 	lcall	__gptrput
                                   1247 ;	../osal/common/OSAL_Timers.c:170: if ( timerHead == NULL )
      00015A 90r00r00         [24] 1248 	mov	dptr,#_timerHead
      00015D E0               [24] 1249 	movx	a,@dptr
      00015E FD               [12] 1250 	mov	r5,a
      00015F A3               [24] 1251 	inc	dptr
      000160 E0               [24] 1252 	movx	a,@dptr
      000161 FE               [12] 1253 	mov	r6,a
      000162 A3               [24] 1254 	inc	dptr
      000163 E0               [24] 1255 	movx	a,@dptr
      000164 FF               [12] 1256 	mov	r7,a
      000165 ED               [12] 1257 	mov	a,r5
      000166 4E               [12] 1258 	orl	a,r6
      000167 60 03            [24] 1259 	jz	00132$
      000169 02r01r85         [24] 1260 	ljmp	00105$
      00016C                       1261 00132$:
                                   1262 ;	../osal/common/OSAL_Timers.c:173: timerHead = newTimer;
      00016C 90r00r0E         [24] 1263 	mov	dptr,#_osalAddTimer_newTimer_1_89
      00016F E0               [24] 1264 	movx	a,@dptr
      000170 FD               [12] 1265 	mov	r5,a
      000171 A3               [24] 1266 	inc	dptr
      000172 E0               [24] 1267 	movx	a,@dptr
      000173 FE               [12] 1268 	mov	r6,a
      000174 A3               [24] 1269 	inc	dptr
      000175 E0               [24] 1270 	movx	a,@dptr
      000176 FF               [12] 1271 	mov	r7,a
      000177 90r00r00         [24] 1272 	mov	dptr,#_timerHead
      00017A ED               [12] 1273 	mov	a,r5
      00017B F0               [24] 1274 	movx	@dptr,a
      00017C EE               [12] 1275 	mov	a,r6
      00017D A3               [24] 1276 	inc	dptr
      00017E F0               [24] 1277 	movx	@dptr,a
      00017F EF               [12] 1278 	mov	a,r7
      000180 A3               [24] 1279 	inc	dptr
      000181 F0               [24] 1280 	movx	@dptr,a
      000182 02r02r18         [24] 1281 	ljmp	00106$
      000185                       1282 00105$:
                                   1283 ;	../osal/common/OSAL_Timers.c:180: srchTimer = timerHead;
      000185 90r00r00         [24] 1284 	mov	dptr,#_timerHead
      000188 E0               [24] 1285 	movx	a,@dptr
      000189 FD               [12] 1286 	mov	r5,a
      00018A A3               [24] 1287 	inc	dptr
      00018B E0               [24] 1288 	movx	a,@dptr
      00018C FE               [12] 1289 	mov	r6,a
      00018D A3               [24] 1290 	inc	dptr
      00018E E0               [24] 1291 	movx	a,@dptr
      00018F FF               [12] 1292 	mov	r7,a
      000190 90r00r11         [24] 1293 	mov	dptr,#_osalAddTimer_srchTimer_1_89
      000193 ED               [12] 1294 	mov	a,r5
      000194 F0               [24] 1295 	movx	@dptr,a
      000195 EE               [12] 1296 	mov	a,r6
      000196 A3               [24] 1297 	inc	dptr
      000197 F0               [24] 1298 	movx	@dptr,a
      000198 EF               [12] 1299 	mov	a,r7
      000199 A3               [24] 1300 	inc	dptr
      00019A F0               [24] 1301 	movx	@dptr,a
                                   1302 ;	../osal/common/OSAL_Timers.c:183: while ( srchTimer->next ){
      00019B                       1303 00101$:
      00019B 90r00r11         [24] 1304 	mov	dptr,#_osalAddTimer_srchTimer_1_89
      00019E E0               [24] 1305 	movx	a,@dptr
      00019F FD               [12] 1306 	mov	r5,a
      0001A0 A3               [24] 1307 	inc	dptr
      0001A1 E0               [24] 1308 	movx	a,@dptr
      0001A2 FE               [12] 1309 	mov	r6,a
      0001A3 A3               [24] 1310 	inc	dptr
      0001A4 E0               [24] 1311 	movx	a,@dptr
      0001A5 FF               [12] 1312 	mov	r7,a
      0001A6 8D 82            [24] 1313 	mov	dpl,r5
      0001A8 8E 83            [24] 1314 	mov	dph,r6
      0001AA 8F F0            [24] 1315 	mov	b,r7
      0001AC 12r00r00         [24] 1316 	lcall	__gptrget
      0001AF FD               [12] 1317 	mov	r5,a
      0001B0 A3               [24] 1318 	inc	dptr
      0001B1 12r00r00         [24] 1319 	lcall	__gptrget
      0001B4 FE               [12] 1320 	mov	r6,a
      0001B5 A3               [24] 1321 	inc	dptr
      0001B6 12r00r00         [24] 1322 	lcall	__gptrget
      0001B9 FF               [12] 1323 	mov	r7,a
      0001BA ED               [12] 1324 	mov	a,r5
      0001BB 4E               [12] 1325 	orl	a,r6
      0001BC 70 03            [24] 1326 	jnz	00133$
      0001BE 02r01rEE         [24] 1327 	ljmp	00103$
      0001C1                       1328 00133$:
                                   1329 ;	../osal/common/OSAL_Timers.c:184: srchTimer = srchTimer->next;
      0001C1 90r00r11         [24] 1330 	mov	dptr,#_osalAddTimer_srchTimer_1_89
      0001C4 E0               [24] 1331 	movx	a,@dptr
      0001C5 FD               [12] 1332 	mov	r5,a
      0001C6 A3               [24] 1333 	inc	dptr
      0001C7 E0               [24] 1334 	movx	a,@dptr
      0001C8 FE               [12] 1335 	mov	r6,a
      0001C9 A3               [24] 1336 	inc	dptr
      0001CA E0               [24] 1337 	movx	a,@dptr
      0001CB FF               [12] 1338 	mov	r7,a
      0001CC 8D 82            [24] 1339 	mov	dpl,r5
      0001CE 8E 83            [24] 1340 	mov	dph,r6
      0001D0 8F F0            [24] 1341 	mov	b,r7
      0001D2 12r00r00         [24] 1342 	lcall	__gptrget
      0001D5 FD               [12] 1343 	mov	r5,a
      0001D6 A3               [24] 1344 	inc	dptr
      0001D7 12r00r00         [24] 1345 	lcall	__gptrget
      0001DA FE               [12] 1346 	mov	r6,a
      0001DB A3               [24] 1347 	inc	dptr
      0001DC 12r00r00         [24] 1348 	lcall	__gptrget
      0001DF FF               [12] 1349 	mov	r7,a
      0001E0 90r00r11         [24] 1350 	mov	dptr,#_osalAddTimer_srchTimer_1_89
      0001E3 ED               [12] 1351 	mov	a,r5
      0001E4 F0               [24] 1352 	movx	@dptr,a
      0001E5 EE               [12] 1353 	mov	a,r6
      0001E6 A3               [24] 1354 	inc	dptr
      0001E7 F0               [24] 1355 	movx	@dptr,a
      0001E8 EF               [12] 1356 	mov	a,r7
      0001E9 A3               [24] 1357 	inc	dptr
      0001EA F0               [24] 1358 	movx	@dptr,a
      0001EB 02r01r9B         [24] 1359 	ljmp	00101$
      0001EE                       1360 00103$:
                                   1361 ;	../osal/common/OSAL_Timers.c:189: srchTimer->next = newTimer;
      0001EE 90r00r11         [24] 1362 	mov	dptr,#_osalAddTimer_srchTimer_1_89
      0001F1 E0               [24] 1363 	movx	a,@dptr
      0001F2 FD               [12] 1364 	mov	r5,a
      0001F3 A3               [24] 1365 	inc	dptr
      0001F4 E0               [24] 1366 	movx	a,@dptr
      0001F5 FE               [12] 1367 	mov	r6,a
      0001F6 A3               [24] 1368 	inc	dptr
      0001F7 E0               [24] 1369 	movx	a,@dptr
      0001F8 FF               [12] 1370 	mov	r7,a
      0001F9 90r00r0E         [24] 1371 	mov	dptr,#_osalAddTimer_newTimer_1_89
      0001FC E0               [24] 1372 	movx	a,@dptr
      0001FD FA               [12] 1373 	mov	r2,a
      0001FE A3               [24] 1374 	inc	dptr
      0001FF E0               [24] 1375 	movx	a,@dptr
      000200 FB               [12] 1376 	mov	r3,a
      000201 A3               [24] 1377 	inc	dptr
      000202 E0               [24] 1378 	movx	a,@dptr
      000203 FC               [12] 1379 	mov	r4,a
      000204 8D 82            [24] 1380 	mov	dpl,r5
      000206 8E 83            [24] 1381 	mov	dph,r6
      000208 8F F0            [24] 1382 	mov	b,r7
      00020A EA               [12] 1383 	mov	a,r2
      00020B 12r00r00         [24] 1384 	lcall	__gptrput
      00020E A3               [24] 1385 	inc	dptr
      00020F EB               [12] 1386 	mov	a,r3
      000210 12r00r00         [24] 1387 	lcall	__gptrput
      000213 A3               [24] 1388 	inc	dptr
      000214 EC               [12] 1389 	mov	a,r4
      000215 12r00r00         [24] 1390 	lcall	__gptrput
      000218                       1391 00106$:
                                   1392 ;	../osal/common/OSAL_Timers.c:195: return ( newTimer );
      000218 90r00r0E         [24] 1393 	mov	dptr,#_osalAddTimer_newTimer_1_89
      00021B E0               [24] 1394 	movx	a,@dptr
      00021C FD               [12] 1395 	mov	r5,a
      00021D A3               [24] 1396 	inc	dptr
      00021E E0               [24] 1397 	movx	a,@dptr
      00021F FE               [12] 1398 	mov	r6,a
      000220 A3               [24] 1399 	inc	dptr
      000221 E0               [24] 1400 	movx	a,@dptr
      000222 FF               [12] 1401 	mov	r7,a
      000223 8D 82            [24] 1402 	mov	dpl,r5
      000225 8E 83            [24] 1403 	mov	dph,r6
      000227 8F F0            [24] 1404 	mov	b,r7
      000229 02r02r35         [24] 1405 	ljmp	00113$
      00022C                       1406 00108$:
                                   1407 ;	../osal/common/OSAL_Timers.c:200: return ( (osalTimerRec_t *)NULL );
      00022C 75 82 00         [24] 1408 	mov	dpl,#0x00
      00022F 75 83 00         [24] 1409 	mov	dph,#0x00
      000232 75 F0 00         [24] 1410 	mov	b,#0x00
      000235                       1411 00113$:
      000235 22               [24] 1412 	ret
                                   1413 ;------------------------------------------------------------
                                   1414 ;Allocation info for local variables in function 'osalFindTimer'
                                   1415 ;------------------------------------------------------------
                                   1416 ;event_flag                Allocated with name '_osalFindTimer_PARM_2'
                                   1417 ;task_id                   Allocated with name '_osalFindTimer_task_id_1_97'
                                   1418 ;srchTimer                 Allocated with name '_osalFindTimer_srchTimer_1_98'
                                   1419 ;------------------------------------------------------------
                                   1420 ;	../osal/common/OSAL_Timers.c:216: osalTimerRec_t *osalFindTimer( uint8 task_id, uint16 event_flag )
                                   1421 ;	-----------------------------------------
                                   1422 ;	 function osalFindTimer
                                   1423 ;	-----------------------------------------
      000236                       1424 _osalFindTimer:
      000236 E5 82            [12] 1425 	mov	a,dpl
      000238 90r00r16         [24] 1426 	mov	dptr,#_osalFindTimer_task_id_1_97
      00023B F0               [24] 1427 	movx	@dptr,a
                                   1428 ;	../osal/common/OSAL_Timers.c:221: srchTimer = timerHead;
      00023C 90r00r00         [24] 1429 	mov	dptr,#_timerHead
      00023F E0               [24] 1430 	movx	a,@dptr
      000240 FD               [12] 1431 	mov	r5,a
      000241 A3               [24] 1432 	inc	dptr
      000242 E0               [24] 1433 	movx	a,@dptr
      000243 FE               [12] 1434 	mov	r6,a
      000244 A3               [24] 1435 	inc	dptr
      000245 E0               [24] 1436 	movx	a,@dptr
      000246 FF               [12] 1437 	mov	r7,a
      000247 90r00r17         [24] 1438 	mov	dptr,#_osalFindTimer_srchTimer_1_98
      00024A ED               [12] 1439 	mov	a,r5
      00024B F0               [24] 1440 	movx	@dptr,a
      00024C EE               [12] 1441 	mov	a,r6
      00024D A3               [24] 1442 	inc	dptr
      00024E F0               [24] 1443 	movx	@dptr,a
      00024F EF               [12] 1444 	mov	a,r7
      000250 A3               [24] 1445 	inc	dptr
      000251 F0               [24] 1446 	movx	@dptr,a
                                   1447 ;	../osal/common/OSAL_Timers.c:224: while ( srchTimer )
      000252 90r00r16         [24] 1448 	mov	dptr,#_osalFindTimer_task_id_1_97
      000255 E0               [24] 1449 	movx	a,@dptr
      000256 FF               [12] 1450 	mov	r7,a
      000257 90r00r14         [24] 1451 	mov	dptr,#_osalFindTimer_PARM_2
      00025A E0               [24] 1452 	movx	a,@dptr
      00025B FD               [12] 1453 	mov	r5,a
      00025C A3               [24] 1454 	inc	dptr
      00025D E0               [24] 1455 	movx	a,@dptr
      00025E FE               [12] 1456 	mov	r6,a
      00025F                       1457 00104$:
      00025F 90r00r17         [24] 1458 	mov	dptr,#_osalFindTimer_srchTimer_1_98
      000262 E0               [24] 1459 	movx	a,@dptr
      000263 FA               [12] 1460 	mov	r2,a
      000264 A3               [24] 1461 	inc	dptr
      000265 E0               [24] 1462 	movx	a,@dptr
      000266 FB               [12] 1463 	mov	r3,a
      000267 A3               [24] 1464 	inc	dptr
      000268 E0               [24] 1465 	movx	a,@dptr
      000269 FC               [12] 1466 	mov	r4,a
      00026A EA               [12] 1467 	mov	a,r2
      00026B 4B               [12] 1468 	orl	a,r3
      00026C 70 03            [24] 1469 	jnz	00118$
      00026E 02r02rF1         [24] 1470 	ljmp	00106$
      000271                       1471 00118$:
                                   1472 ;	../osal/common/OSAL_Timers.c:228: if ( srchTimer->event_flag == event_flag &&
      000271 90r00r17         [24] 1473 	mov	dptr,#_osalFindTimer_srchTimer_1_98
      000274 E0               [24] 1474 	movx	a,@dptr
      000275 FA               [12] 1475 	mov	r2,a
      000276 A3               [24] 1476 	inc	dptr
      000277 E0               [24] 1477 	movx	a,@dptr
      000278 FB               [12] 1478 	mov	r3,a
      000279 A3               [24] 1479 	inc	dptr
      00027A E0               [24] 1480 	movx	a,@dptr
      00027B FC               [12] 1481 	mov	r4,a
      00027C 74 07            [12] 1482 	mov	a,#0x07
      00027E 2A               [12] 1483 	add	a,r2
      00027F FA               [12] 1484 	mov	r2,a
      000280 74 00            [12] 1485 	mov	a,#0x00
      000282 3B               [12] 1486 	addc	a,r3
      000283 FB               [12] 1487 	mov	r3,a
      000284 8A 82            [24] 1488 	mov	dpl,r2
      000286 8B 83            [24] 1489 	mov	dph,r3
      000288 8C F0            [24] 1490 	mov	b,r4
      00028A 12r00r00         [24] 1491 	lcall	__gptrget
      00028D FA               [12] 1492 	mov	r2,a
      00028E A3               [24] 1493 	inc	dptr
      00028F 12r00r00         [24] 1494 	lcall	__gptrget
      000292 FB               [12] 1495 	mov	r3,a
      000293 EA               [12] 1496 	mov	a,r2
      000294 B5 05 06         [24] 1497 	cjne	a,ar5,00119$
      000297 EB               [12] 1498 	mov	a,r3
      000298 B5 06 02         [24] 1499 	cjne	a,ar6,00119$
      00029B 80 03            [24] 1500 	sjmp	00120$
      00029D                       1501 00119$:
      00029D 02r02rC4         [24] 1502 	ljmp	00102$
      0002A0                       1503 00120$:
                                   1504 ;	../osal/common/OSAL_Timers.c:229: srchTimer->task_id == task_id )
      0002A0 90r00r17         [24] 1505 	mov	dptr,#_osalFindTimer_srchTimer_1_98
      0002A3 E0               [24] 1506 	movx	a,@dptr
      0002A4 FA               [12] 1507 	mov	r2,a
      0002A5 A3               [24] 1508 	inc	dptr
      0002A6 E0               [24] 1509 	movx	a,@dptr
      0002A7 FB               [12] 1510 	mov	r3,a
      0002A8 A3               [24] 1511 	inc	dptr
      0002A9 E0               [24] 1512 	movx	a,@dptr
      0002AA FC               [12] 1513 	mov	r4,a
      0002AB 74 09            [12] 1514 	mov	a,#0x09
      0002AD 2A               [12] 1515 	add	a,r2
      0002AE FA               [12] 1516 	mov	r2,a
      0002AF 74 00            [12] 1517 	mov	a,#0x00
      0002B1 3B               [12] 1518 	addc	a,r3
      0002B2 FB               [12] 1519 	mov	r3,a
      0002B3 8A 82            [24] 1520 	mov	dpl,r2
      0002B5 8B 83            [24] 1521 	mov	dph,r3
      0002B7 8C F0            [24] 1522 	mov	b,r4
      0002B9 12r00r00         [24] 1523 	lcall	__gptrget
      0002BC FA               [12] 1524 	mov	r2,a
      0002BD EA               [12] 1525 	mov	a,r2
      0002BE B5 07 03         [24] 1526 	cjne	a,ar7,00121$
      0002C1 02r02rF1         [24] 1527 	ljmp	00106$
      0002C4                       1528 00121$:
                                   1529 ;	../osal/common/OSAL_Timers.c:231: break;
      0002C4                       1530 00102$:
                                   1531 ;	../osal/common/OSAL_Timers.c:237: srchTimer = srchTimer->next;
      0002C4 90r00r17         [24] 1532 	mov	dptr,#_osalFindTimer_srchTimer_1_98
      0002C7 E0               [24] 1533 	movx	a,@dptr
      0002C8 FA               [12] 1534 	mov	r2,a
      0002C9 A3               [24] 1535 	inc	dptr
      0002CA E0               [24] 1536 	movx	a,@dptr
      0002CB FB               [12] 1537 	mov	r3,a
      0002CC A3               [24] 1538 	inc	dptr
      0002CD E0               [24] 1539 	movx	a,@dptr
      0002CE FC               [12] 1540 	mov	r4,a
      0002CF 8A 82            [24] 1541 	mov	dpl,r2
      0002D1 8B 83            [24] 1542 	mov	dph,r3
      0002D3 8C F0            [24] 1543 	mov	b,r4
      0002D5 12r00r00         [24] 1544 	lcall	__gptrget
      0002D8 FA               [12] 1545 	mov	r2,a
      0002D9 A3               [24] 1546 	inc	dptr
      0002DA 12r00r00         [24] 1547 	lcall	__gptrget
      0002DD FB               [12] 1548 	mov	r3,a
      0002DE A3               [24] 1549 	inc	dptr
      0002DF 12r00r00         [24] 1550 	lcall	__gptrget
      0002E2 FC               [12] 1551 	mov	r4,a
      0002E3 90r00r17         [24] 1552 	mov	dptr,#_osalFindTimer_srchTimer_1_98
      0002E6 EA               [12] 1553 	mov	a,r2
      0002E7 F0               [24] 1554 	movx	@dptr,a
      0002E8 EB               [12] 1555 	mov	a,r3
      0002E9 A3               [24] 1556 	inc	dptr
      0002EA F0               [24] 1557 	movx	@dptr,a
      0002EB EC               [12] 1558 	mov	a,r4
      0002EC A3               [24] 1559 	inc	dptr
      0002ED F0               [24] 1560 	movx	@dptr,a
      0002EE 02r02r5F         [24] 1561 	ljmp	00104$
      0002F1                       1562 00106$:
                                   1563 ;	../osal/common/OSAL_Timers.c:241: return ( srchTimer );
      0002F1 90r00r17         [24] 1564 	mov	dptr,#_osalFindTimer_srchTimer_1_98
      0002F4 E0               [24] 1565 	movx	a,@dptr
      0002F5 FD               [12] 1566 	mov	r5,a
      0002F6 A3               [24] 1567 	inc	dptr
      0002F7 E0               [24] 1568 	movx	a,@dptr
      0002F8 FE               [12] 1569 	mov	r6,a
      0002F9 A3               [24] 1570 	inc	dptr
      0002FA E0               [24] 1571 	movx	a,@dptr
      0002FB FF               [12] 1572 	mov	r7,a
      0002FC 8D 82            [24] 1573 	mov	dpl,r5
      0002FE 8E 83            [24] 1574 	mov	dph,r6
      000300 8F F0            [24] 1575 	mov	b,r7
      000302                       1576 00107$:
      000302 22               [24] 1577 	ret
                                   1578 ;------------------------------------------------------------
                                   1579 ;Allocation info for local variables in function 'osalDeleteTimer'
                                   1580 ;------------------------------------------------------------
                                   1581 ;rmTimer                   Allocated with name '_osalDeleteTimer_rmTimer_1_101'
                                   1582 ;------------------------------------------------------------
                                   1583 ;	../osal/common/OSAL_Timers.c:254: void osalDeleteTimer( osalTimerRec_t *rmTimer )
                                   1584 ;	-----------------------------------------
                                   1585 ;	 function osalDeleteTimer
                                   1586 ;	-----------------------------------------
      000303                       1587 _osalDeleteTimer:
      000303 AF F0            [24] 1588 	mov	r7,b
      000305 AE 83            [24] 1589 	mov	r6,dph
      000307 E5 82            [12] 1590 	mov	a,dpl
      000309 90r00r1A         [24] 1591 	mov	dptr,#_osalDeleteTimer_rmTimer_1_101
      00030C F0               [24] 1592 	movx	@dptr,a
      00030D EE               [12] 1593 	mov	a,r6
      00030E A3               [24] 1594 	inc	dptr
      00030F F0               [24] 1595 	movx	@dptr,a
      000310 EF               [12] 1596 	mov	a,r7
      000311 A3               [24] 1597 	inc	dptr
      000312 F0               [24] 1598 	movx	@dptr,a
                                   1599 ;	../osal/common/OSAL_Timers.c:257: if ( rmTimer )
      000313 90r00r1A         [24] 1600 	mov	dptr,#_osalDeleteTimer_rmTimer_1_101
      000316 E0               [24] 1601 	movx	a,@dptr
      000317 FD               [12] 1602 	mov	r5,a
      000318 A3               [24] 1603 	inc	dptr
      000319 E0               [24] 1604 	movx	a,@dptr
      00031A FE               [12] 1605 	mov	r6,a
      00031B A3               [24] 1606 	inc	dptr
      00031C E0               [24] 1607 	movx	a,@dptr
      00031D FF               [12] 1608 	mov	r7,a
      00031E ED               [12] 1609 	mov	a,r5
      00031F 4E               [12] 1610 	orl	a,r6
      000320 70 03            [24] 1611 	jnz	00108$
      000322 02r03r47         [24] 1612 	ljmp	00103$
      000325                       1613 00108$:
                                   1614 ;	../osal/common/OSAL_Timers.c:261: rmTimer->event_flag = 0;
      000325 90r00r1A         [24] 1615 	mov	dptr,#_osalDeleteTimer_rmTimer_1_101
      000328 E0               [24] 1616 	movx	a,@dptr
      000329 FD               [12] 1617 	mov	r5,a
      00032A A3               [24] 1618 	inc	dptr
      00032B E0               [24] 1619 	movx	a,@dptr
      00032C FE               [12] 1620 	mov	r6,a
      00032D A3               [24] 1621 	inc	dptr
      00032E E0               [24] 1622 	movx	a,@dptr
      00032F FF               [12] 1623 	mov	r7,a
      000330 74 07            [12] 1624 	mov	a,#0x07
      000332 2D               [12] 1625 	add	a,r5
      000333 FD               [12] 1626 	mov	r5,a
      000334 74 00            [12] 1627 	mov	a,#0x00
      000336 3E               [12] 1628 	addc	a,r6
      000337 FE               [12] 1629 	mov	r6,a
      000338 8D 82            [24] 1630 	mov	dpl,r5
      00033A 8E 83            [24] 1631 	mov	dph,r6
      00033C 8F F0            [24] 1632 	mov	b,r7
      00033E 74 00            [12] 1633 	mov	a,#0x00
      000340 12r00r00         [24] 1634 	lcall	__gptrput
      000343 A3               [24] 1635 	inc	dptr
      000344 12r00r00         [24] 1636 	lcall	__gptrput
      000347                       1637 00103$:
      000347 22               [24] 1638 	ret
                                   1639 ;------------------------------------------------------------
                                   1640 ;Allocation info for local variables in function 'osal_start_timerEx'
                                   1641 ;------------------------------------------------------------
                                   1642 ;event_id                  Allocated with name '_osal_start_timerEx_PARM_2'
                                   1643 ;timeout_value             Allocated with name '_osal_start_timerEx_PARM_3'
                                   1644 ;taskID                    Allocated with name '_osal_start_timerEx_taskID_1_104'
                                   1645 ;intState                  Allocated with name '_osal_start_timerEx_intState_1_105'
                                   1646 ;newTimer                  Allocated with name '_osal_start_timerEx_newTimer_1_105'
                                   1647 ;------------------------------------------------------------
                                   1648 ;	../osal/common/OSAL_Timers.c:279: uint8 osal_start_timerEx( uint8 taskID, uint16 event_id, uint32 timeout_value )
                                   1649 ;	-----------------------------------------
                                   1650 ;	 function osal_start_timerEx
                                   1651 ;	-----------------------------------------
      000348                       1652 _osal_start_timerEx:
      000348 E5 82            [12] 1653 	mov	a,dpl
      00034A 90r00r23         [24] 1654 	mov	dptr,#_osal_start_timerEx_taskID_1_104
      00034D F0               [24] 1655 	movx	@dptr,a
                                   1656 ;	../osal/common/OSAL_Timers.c:289: __endasm;
      00034E C3               [12] 1657 	clr c;
                                   1658 ;	../osal/common/OSAL_Timers.c:294: newTimer = osalAddTimer( taskID, event_id, timeout_value );
      00034F 90r00r23         [24] 1659 	mov	dptr,#_osal_start_timerEx_taskID_1_104
      000352 E0               [24] 1660 	movx	a,@dptr
      000353 FF               [12] 1661 	mov	r7,a
      000354 90r00r1D         [24] 1662 	mov	dptr,#_osal_start_timerEx_PARM_2
      000357 E0               [24] 1663 	movx	a,@dptr
      000358 FD               [12] 1664 	mov	r5,a
      000359 A3               [24] 1665 	inc	dptr
      00035A E0               [24] 1666 	movx	a,@dptr
      00035B FE               [12] 1667 	mov	r6,a
      00035C 90r00r1F         [24] 1668 	mov	dptr,#_osal_start_timerEx_PARM_3
      00035F E0               [24] 1669 	movx	a,@dptr
      000360 F9               [12] 1670 	mov	r1,a
      000361 A3               [24] 1671 	inc	dptr
      000362 E0               [24] 1672 	movx	a,@dptr
      000363 FA               [12] 1673 	mov	r2,a
      000364 A3               [24] 1674 	inc	dptr
      000365 E0               [24] 1675 	movx	a,@dptr
      000366 FB               [12] 1676 	mov	r3,a
      000367 A3               [24] 1677 	inc	dptr
      000368 E0               [24] 1678 	movx	a,@dptr
      000369 FC               [12] 1679 	mov	r4,a
      00036A 90r00r07         [24] 1680 	mov	dptr,#_osalAddTimer_PARM_2
      00036D ED               [12] 1681 	mov	a,r5
      00036E F0               [24] 1682 	movx	@dptr,a
      00036F EE               [12] 1683 	mov	a,r6
      000370 A3               [24] 1684 	inc	dptr
      000371 F0               [24] 1685 	movx	@dptr,a
      000372 90r00r09         [24] 1686 	mov	dptr,#_osalAddTimer_PARM_3
      000375 E9               [12] 1687 	mov	a,r1
      000376 F0               [24] 1688 	movx	@dptr,a
      000377 EA               [12] 1689 	mov	a,r2
      000378 A3               [24] 1690 	inc	dptr
      000379 F0               [24] 1691 	movx	@dptr,a
      00037A EB               [12] 1692 	mov	a,r3
      00037B A3               [24] 1693 	inc	dptr
      00037C F0               [24] 1694 	movx	@dptr,a
      00037D EC               [12] 1695 	mov	a,r4
      00037E A3               [24] 1696 	inc	dptr
      00037F F0               [24] 1697 	movx	@dptr,a
      000380 8F 82            [24] 1698 	mov	dpl,r7
      000382 12r00r0D         [24] 1699 	lcall	_osalAddTimer
      000385 AD 82            [24] 1700 	mov	r5,dpl
      000387 AE 83            [24] 1701 	mov	r6,dph
      000389 AF F0            [24] 1702 	mov	r7,b
                                   1703 ;	../osal/common/OSAL_Timers.c:301: return ( (newTimer != NULL) ? SUCCESS : NO_TIMER_AVAIL );
      00038B ED               [12] 1704 	mov	a,r5
      00038C 4E               [12] 1705 	orl	a,r6
      00038D 70 03            [24] 1706 	jnz	00108$
      00038F 02r03r97         [24] 1707 	ljmp	00103$
      000392                       1708 00108$:
      000392 7F 00            [12] 1709 	mov	r7,#0x00
      000394 02r03r99         [24] 1710 	ljmp	00104$
      000397                       1711 00103$:
      000397 7F 08            [12] 1712 	mov	r7,#0x08
      000399                       1713 00104$:
      000399 8F 82            [24] 1714 	mov	dpl,r7
      00039B                       1715 00101$:
      00039B 22               [24] 1716 	ret
                                   1717 ;------------------------------------------------------------
                                   1718 ;Allocation info for local variables in function 'osal_start_reload_timer'
                                   1719 ;------------------------------------------------------------
                                   1720 ;event_id                  Allocated with name '_osal_start_reload_timer_PARM_2'
                                   1721 ;timeout_value             Allocated with name '_osal_start_reload_timer_PARM_3'
                                   1722 ;taskID                    Allocated with name '_osal_start_reload_timer_taskID_1_106'
                                   1723 ;intState                  Allocated with name '_osal_start_reload_timer_intState_1_107'
                                   1724 ;newTimer                  Allocated with name '_osal_start_reload_timer_newTimer_1_107'
                                   1725 ;------------------------------------------------------------
                                   1726 ;	../osal/common/OSAL_Timers.c:319: uint8 osal_start_reload_timer( uint8 taskID, uint16 event_id, uint32 timeout_value )
                                   1727 ;	-----------------------------------------
                                   1728 ;	 function osal_start_reload_timer
                                   1729 ;	-----------------------------------------
      00039C                       1730 _osal_start_reload_timer:
      00039C E5 82            [12] 1731 	mov	a,dpl
      00039E 90r00r2A         [24] 1732 	mov	dptr,#_osal_start_reload_timer_taskID_1_106
      0003A1 F0               [24] 1733 	movx	@dptr,a
                                   1734 ;	../osal/common/OSAL_Timers.c:324: HAL_ENTER_CRITICAL_SECTION( intState );  // Hold off interrupts.
      0003A2 90r00r2B         [24] 1735 	mov	dptr,#_osal_start_reload_timer_intState_1_107
      0003A5 A2 AF            [12] 1736 	mov	c,_EA
      0003A7 E4               [12] 1737 	clr	a
      0003A8 33               [12] 1738 	rlc	a
      0003A9 F0               [24] 1739 	movx	@dptr,a
      0003AA C2 AF            [12] 1740 	clr	_EA
                                   1741 ;	../osal/common/OSAL_Timers.c:327: newTimer = osalAddTimer( taskID, event_id, timeout_value );
      0003AC 90r00r2A         [24] 1742 	mov	dptr,#_osal_start_reload_timer_taskID_1_106
      0003AF E0               [24] 1743 	movx	a,@dptr
      0003B0 FF               [12] 1744 	mov	r7,a
      0003B1 90r00r24         [24] 1745 	mov	dptr,#_osal_start_reload_timer_PARM_2
      0003B4 E0               [24] 1746 	movx	a,@dptr
      0003B5 FD               [12] 1747 	mov	r5,a
      0003B6 A3               [24] 1748 	inc	dptr
      0003B7 E0               [24] 1749 	movx	a,@dptr
      0003B8 FE               [12] 1750 	mov	r6,a
      0003B9 90r00r26         [24] 1751 	mov	dptr,#_osal_start_reload_timer_PARM_3
      0003BC E0               [24] 1752 	movx	a,@dptr
      0003BD F9               [12] 1753 	mov	r1,a
      0003BE A3               [24] 1754 	inc	dptr
      0003BF E0               [24] 1755 	movx	a,@dptr
      0003C0 FA               [12] 1756 	mov	r2,a
      0003C1 A3               [24] 1757 	inc	dptr
      0003C2 E0               [24] 1758 	movx	a,@dptr
      0003C3 FB               [12] 1759 	mov	r3,a
      0003C4 A3               [24] 1760 	inc	dptr
      0003C5 E0               [24] 1761 	movx	a,@dptr
      0003C6 FC               [12] 1762 	mov	r4,a
      0003C7 90r00r07         [24] 1763 	mov	dptr,#_osalAddTimer_PARM_2
      0003CA ED               [12] 1764 	mov	a,r5
      0003CB F0               [24] 1765 	movx	@dptr,a
      0003CC EE               [12] 1766 	mov	a,r6
      0003CD A3               [24] 1767 	inc	dptr
      0003CE F0               [24] 1768 	movx	@dptr,a
      0003CF 90r00r09         [24] 1769 	mov	dptr,#_osalAddTimer_PARM_3
      0003D2 E9               [12] 1770 	mov	a,r1
      0003D3 F0               [24] 1771 	movx	@dptr,a
      0003D4 EA               [12] 1772 	mov	a,r2
      0003D5 A3               [24] 1773 	inc	dptr
      0003D6 F0               [24] 1774 	movx	@dptr,a
      0003D7 EB               [12] 1775 	mov	a,r3
      0003D8 A3               [24] 1776 	inc	dptr
      0003D9 F0               [24] 1777 	movx	@dptr,a
      0003DA EC               [12] 1778 	mov	a,r4
      0003DB A3               [24] 1779 	inc	dptr
      0003DC F0               [24] 1780 	movx	@dptr,a
      0003DD 8F 82            [24] 1781 	mov	dpl,r7
      0003DF 12r00r0D         [24] 1782 	lcall	_osalAddTimer
      0003E2 AD 82            [24] 1783 	mov	r5,dpl
      0003E4 AE 83            [24] 1784 	mov	r6,dph
      0003E6 AF F0            [24] 1785 	mov	r7,b
      0003E8 90r00r2C         [24] 1786 	mov	dptr,#_osal_start_reload_timer_newTimer_1_107
      0003EB ED               [12] 1787 	mov	a,r5
      0003EC F0               [24] 1788 	movx	@dptr,a
      0003ED EE               [12] 1789 	mov	a,r6
      0003EE A3               [24] 1790 	inc	dptr
      0003EF F0               [24] 1791 	movx	@dptr,a
      0003F0 EF               [12] 1792 	mov	a,r7
      0003F1 A3               [24] 1793 	inc	dptr
      0003F2 F0               [24] 1794 	movx	@dptr,a
                                   1795 ;	../osal/common/OSAL_Timers.c:328: if ( newTimer )
      0003F3 ED               [12] 1796 	mov	a,r5
      0003F4 4E               [12] 1797 	orl	a,r6
      0003F5 70 03            [24] 1798 	jnz	00122$
      0003F7 02r04r34         [24] 1799 	ljmp	00109$
      0003FA                       1800 00122$:
                                   1801 ;	../osal/common/OSAL_Timers.c:331: newTimer->reloadTimeout = timeout_value;
      0003FA 90r00r2C         [24] 1802 	mov	dptr,#_osal_start_reload_timer_newTimer_1_107
      0003FD E0               [24] 1803 	movx	a,@dptr
      0003FE FD               [12] 1804 	mov	r5,a
      0003FF A3               [24] 1805 	inc	dptr
      000400 E0               [24] 1806 	movx	a,@dptr
      000401 FE               [12] 1807 	mov	r6,a
      000402 A3               [24] 1808 	inc	dptr
      000403 E0               [24] 1809 	movx	a,@dptr
      000404 FF               [12] 1810 	mov	r7,a
      000405 74 0A            [12] 1811 	mov	a,#0x0A
      000407 2D               [12] 1812 	add	a,r5
      000408 FD               [12] 1813 	mov	r5,a
      000409 74 00            [12] 1814 	mov	a,#0x00
      00040B 3E               [12] 1815 	addc	a,r6
      00040C FE               [12] 1816 	mov	r6,a
      00040D 90r00r26         [24] 1817 	mov	dptr,#_osal_start_reload_timer_PARM_3
      000410 E0               [24] 1818 	movx	a,@dptr
      000411 F9               [12] 1819 	mov	r1,a
      000412 A3               [24] 1820 	inc	dptr
      000413 E0               [24] 1821 	movx	a,@dptr
      000414 FA               [12] 1822 	mov	r2,a
      000415 A3               [24] 1823 	inc	dptr
      000416 E0               [24] 1824 	movx	a,@dptr
      000417 FB               [12] 1825 	mov	r3,a
      000418 A3               [24] 1826 	inc	dptr
      000419 E0               [24] 1827 	movx	a,@dptr
      00041A FC               [12] 1828 	mov	r4,a
      00041B 8D 82            [24] 1829 	mov	dpl,r5
      00041D 8E 83            [24] 1830 	mov	dph,r6
      00041F 8F F0            [24] 1831 	mov	b,r7
      000421 E9               [12] 1832 	mov	a,r1
      000422 12r00r00         [24] 1833 	lcall	__gptrput
      000425 A3               [24] 1834 	inc	dptr
      000426 EA               [12] 1835 	mov	a,r2
      000427 12r00r00         [24] 1836 	lcall	__gptrput
      00042A A3               [24] 1837 	inc	dptr
      00042B EB               [12] 1838 	mov	a,r3
      00042C 12r00r00         [24] 1839 	lcall	__gptrput
      00042F A3               [24] 1840 	inc	dptr
      000430 EC               [12] 1841 	mov	a,r4
      000431 12r00r00         [24] 1842 	lcall	__gptrput
                                   1843 ;	../osal/common/OSAL_Timers.c:334: HAL_EXIT_CRITICAL_SECTION( intState );   // Re-enable interrupts.
      000434                       1844 00109$:
      000434 90r00r2B         [24] 1845 	mov	dptr,#_osal_start_reload_timer_intState_1_107
      000437 E0               [24] 1846 	movx	a,@dptr
      000438 FF               [12] 1847 	mov	r7,a
      000439 EF               [12] 1848 	mov	a,r7
      00043A 24 FF            [12] 1849 	add	a,#0xff
      00043C 92 AF            [24] 1850 	mov	_EA,c
                                   1851 ;	../osal/common/OSAL_Timers.c:336: return ( (newTimer != NULL) ? SUCCESS : NO_TIMER_AVAIL );
      00043E 90r00r2C         [24] 1852 	mov	dptr,#_osal_start_reload_timer_newTimer_1_107
      000441 E0               [24] 1853 	movx	a,@dptr
      000442 FD               [12] 1854 	mov	r5,a
      000443 A3               [24] 1855 	inc	dptr
      000444 E0               [24] 1856 	movx	a,@dptr
      000445 FE               [12] 1857 	mov	r6,a
      000446 A3               [24] 1858 	inc	dptr
      000447 E0               [24] 1859 	movx	a,@dptr
      000448 FF               [12] 1860 	mov	r7,a
      000449 ED               [12] 1861 	mov	a,r5
      00044A 4E               [12] 1862 	orl	a,r6
      00044B 70 03            [24] 1863 	jnz	00123$
      00044D 02r04r55         [24] 1864 	ljmp	00114$
      000450                       1865 00123$:
      000450 7F 00            [12] 1866 	mov	r7,#0x00
      000452 02r04r57         [24] 1867 	ljmp	00115$
      000455                       1868 00114$:
      000455 7F 08            [12] 1869 	mov	r7,#0x08
      000457                       1870 00115$:
      000457 8F 82            [24] 1871 	mov	dpl,r7
      000459                       1872 00112$:
      000459 22               [24] 1873 	ret
                                   1874 ;------------------------------------------------------------
                                   1875 ;Allocation info for local variables in function 'osal_stop_timerEx'
                                   1876 ;------------------------------------------------------------
                                   1877 ;event_id                  Allocated with name '_osal_stop_timerEx_PARM_2'
                                   1878 ;task_id                   Allocated with name '_osal_stop_timerEx_task_id_1_112'
                                   1879 ;intState                  Allocated with name '_osal_stop_timerEx_intState_1_113'
                                   1880 ;foundTimer                Allocated with name '_osal_stop_timerEx_foundTimer_1_113'
                                   1881 ;------------------------------------------------------------
                                   1882 ;	../osal/common/OSAL_Timers.c:353: uint8 osal_stop_timerEx( uint8 task_id, uint16 event_id )
                                   1883 ;	-----------------------------------------
                                   1884 ;	 function osal_stop_timerEx
                                   1885 ;	-----------------------------------------
      00045A                       1886 _osal_stop_timerEx:
      00045A E5 82            [12] 1887 	mov	a,dpl
      00045C 90r00r31         [24] 1888 	mov	dptr,#_osal_stop_timerEx_task_id_1_112
      00045F F0               [24] 1889 	movx	@dptr,a
                                   1890 ;	../osal/common/OSAL_Timers.c:358: HAL_ENTER_CRITICAL_SECTION( intState );  // Hold off interrupts.
      000460 90r00r32         [24] 1891 	mov	dptr,#_osal_stop_timerEx_intState_1_113
      000463 A2 AF            [12] 1892 	mov	c,_EA
      000465 E4               [12] 1893 	clr	a
      000466 33               [12] 1894 	rlc	a
      000467 F0               [24] 1895 	movx	@dptr,a
      000468 C2 AF            [12] 1896 	clr	_EA
                                   1897 ;	../osal/common/OSAL_Timers.c:361: foundTimer = osalFindTimer( task_id, event_id );
      00046A 90r00r31         [24] 1898 	mov	dptr,#_osal_stop_timerEx_task_id_1_112
      00046D E0               [24] 1899 	movx	a,@dptr
      00046E FF               [12] 1900 	mov	r7,a
      00046F 90r00r2F         [24] 1901 	mov	dptr,#_osal_stop_timerEx_PARM_2
      000472 E0               [24] 1902 	movx	a,@dptr
      000473 FD               [12] 1903 	mov	r5,a
      000474 A3               [24] 1904 	inc	dptr
      000475 E0               [24] 1905 	movx	a,@dptr
      000476 FE               [12] 1906 	mov	r6,a
      000477 90r00r14         [24] 1907 	mov	dptr,#_osalFindTimer_PARM_2
      00047A ED               [12] 1908 	mov	a,r5
      00047B F0               [24] 1909 	movx	@dptr,a
      00047C EE               [12] 1910 	mov	a,r6
      00047D A3               [24] 1911 	inc	dptr
      00047E F0               [24] 1912 	movx	@dptr,a
      00047F 8F 82            [24] 1913 	mov	dpl,r7
      000481 12r02r36         [24] 1914 	lcall	_osalFindTimer
      000484 AD 82            [24] 1915 	mov	r5,dpl
      000486 AE 83            [24] 1916 	mov	r6,dph
      000488 AF F0            [24] 1917 	mov	r7,b
      00048A 90r00r33         [24] 1918 	mov	dptr,#_osal_stop_timerEx_foundTimer_1_113
      00048D ED               [12] 1919 	mov	a,r5
      00048E F0               [24] 1920 	movx	@dptr,a
      00048F EE               [12] 1921 	mov	a,r6
      000490 A3               [24] 1922 	inc	dptr
      000491 F0               [24] 1923 	movx	@dptr,a
      000492 EF               [12] 1924 	mov	a,r7
      000493 A3               [24] 1925 	inc	dptr
      000494 F0               [24] 1926 	movx	@dptr,a
                                   1927 ;	../osal/common/OSAL_Timers.c:362: if ( foundTimer )
      000495 ED               [12] 1928 	mov	a,r5
      000496 4E               [12] 1929 	orl	a,r6
      000497 70 03            [24] 1930 	jnz	00122$
      000499 02r04rB0         [24] 1931 	ljmp	00109$
      00049C                       1932 00122$:
                                   1933 ;	../osal/common/OSAL_Timers.c:364: osalDeleteTimer( foundTimer );
      00049C 90r00r33         [24] 1934 	mov	dptr,#_osal_stop_timerEx_foundTimer_1_113
      00049F E0               [24] 1935 	movx	a,@dptr
      0004A0 FD               [12] 1936 	mov	r5,a
      0004A1 A3               [24] 1937 	inc	dptr
      0004A2 E0               [24] 1938 	movx	a,@dptr
      0004A3 FE               [12] 1939 	mov	r6,a
      0004A4 A3               [24] 1940 	inc	dptr
      0004A5 E0               [24] 1941 	movx	a,@dptr
      0004A6 FF               [12] 1942 	mov	r7,a
      0004A7 8D 82            [24] 1943 	mov	dpl,r5
      0004A9 8E 83            [24] 1944 	mov	dph,r6
      0004AB 8F F0            [24] 1945 	mov	b,r7
      0004AD 12r03r03         [24] 1946 	lcall	_osalDeleteTimer
                                   1947 ;	../osal/common/OSAL_Timers.c:367: HAL_EXIT_CRITICAL_SECTION( intState );   // Re-enable interrupts.
      0004B0                       1948 00109$:
      0004B0 90r00r32         [24] 1949 	mov	dptr,#_osal_stop_timerEx_intState_1_113
      0004B3 E0               [24] 1950 	movx	a,@dptr
      0004B4 FF               [12] 1951 	mov	r7,a
      0004B5 EF               [12] 1952 	mov	a,r7
      0004B6 24 FF            [12] 1953 	add	a,#0xff
      0004B8 92 AF            [24] 1954 	mov	_EA,c
                                   1955 ;	../osal/common/OSAL_Timers.c:369: return ( (foundTimer != NULL) ? SUCCESS : INVALID_EVENT_ID );
      0004BA 90r00r33         [24] 1956 	mov	dptr,#_osal_stop_timerEx_foundTimer_1_113
      0004BD E0               [24] 1957 	movx	a,@dptr
      0004BE FD               [12] 1958 	mov	r5,a
      0004BF A3               [24] 1959 	inc	dptr
      0004C0 E0               [24] 1960 	movx	a,@dptr
      0004C1 FE               [12] 1961 	mov	r6,a
      0004C2 A3               [24] 1962 	inc	dptr
      0004C3 E0               [24] 1963 	movx	a,@dptr
      0004C4 FF               [12] 1964 	mov	r7,a
      0004C5 ED               [12] 1965 	mov	a,r5
      0004C6 4E               [12] 1966 	orl	a,r6
      0004C7 70 03            [24] 1967 	jnz	00123$
      0004C9 02r04rD1         [24] 1968 	ljmp	00114$
      0004CC                       1969 00123$:
      0004CC 7F 00            [12] 1970 	mov	r7,#0x00
      0004CE 02r04rD3         [24] 1971 	ljmp	00115$
      0004D1                       1972 00114$:
      0004D1 7F 06            [12] 1973 	mov	r7,#0x06
      0004D3                       1974 00115$:
      0004D3 8F 82            [24] 1975 	mov	dpl,r7
      0004D5                       1976 00112$:
      0004D5 22               [24] 1977 	ret
                                   1978 ;------------------------------------------------------------
                                   1979 ;Allocation info for local variables in function 'osal_get_timeoutEx'
                                   1980 ;------------------------------------------------------------
                                   1981 ;event_id                  Allocated with name '_osal_get_timeoutEx_PARM_2'
                                   1982 ;task_id                   Allocated with name '_osal_get_timeoutEx_task_id_1_118'
                                   1983 ;intState                  Allocated with name '_osal_get_timeoutEx_intState_1_119'
                                   1984 ;rtrn                      Allocated with name '_osal_get_timeoutEx_rtrn_1_119'
                                   1985 ;tmr                       Allocated with name '_osal_get_timeoutEx_tmr_1_119'
                                   1986 ;------------------------------------------------------------
                                   1987 ;	../osal/common/OSAL_Timers.c:382: uint32 osal_get_timeoutEx( uint8 task_id, uint16 event_id )
                                   1988 ;	-----------------------------------------
                                   1989 ;	 function osal_get_timeoutEx
                                   1990 ;	-----------------------------------------
      0004D6                       1991 _osal_get_timeoutEx:
      0004D6 E5 82            [12] 1992 	mov	a,dpl
      0004D8 90r00r38         [24] 1993 	mov	dptr,#_osal_get_timeoutEx_task_id_1_118
      0004DB F0               [24] 1994 	movx	@dptr,a
                                   1995 ;	../osal/common/OSAL_Timers.c:385: uint32 rtrn = 0;
      0004DC 90r00r3A         [24] 1996 	mov	dptr,#_osal_get_timeoutEx_rtrn_1_119
      0004DF 74 00            [12] 1997 	mov	a,#0x00
      0004E1 F0               [24] 1998 	movx	@dptr,a
      0004E2 A3               [24] 1999 	inc	dptr
      0004E3 F0               [24] 2000 	movx	@dptr,a
      0004E4 A3               [24] 2001 	inc	dptr
      0004E5 F0               [24] 2002 	movx	@dptr,a
      0004E6 A3               [24] 2003 	inc	dptr
      0004E7 F0               [24] 2004 	movx	@dptr,a
                                   2005 ;	../osal/common/OSAL_Timers.c:388: HAL_ENTER_CRITICAL_SECTION( intState );  // Hold off interrupts.
      0004E8 90r00r39         [24] 2006 	mov	dptr,#_osal_get_timeoutEx_intState_1_119
      0004EB A2 AF            [12] 2007 	mov	c,_EA
      0004ED E4               [12] 2008 	clr	a
      0004EE 33               [12] 2009 	rlc	a
      0004EF F0               [24] 2010 	movx	@dptr,a
      0004F0 C2 AF            [12] 2011 	clr	_EA
                                   2012 ;	../osal/common/OSAL_Timers.c:390: tmr = osalFindTimer( task_id, event_id );
      0004F2 90r00r38         [24] 2013 	mov	dptr,#_osal_get_timeoutEx_task_id_1_118
      0004F5 E0               [24] 2014 	movx	a,@dptr
      0004F6 FF               [12] 2015 	mov	r7,a
      0004F7 90r00r36         [24] 2016 	mov	dptr,#_osal_get_timeoutEx_PARM_2
      0004FA E0               [24] 2017 	movx	a,@dptr
      0004FB FD               [12] 2018 	mov	r5,a
      0004FC A3               [24] 2019 	inc	dptr
      0004FD E0               [24] 2020 	movx	a,@dptr
      0004FE FE               [12] 2021 	mov	r6,a
      0004FF 90r00r14         [24] 2022 	mov	dptr,#_osalFindTimer_PARM_2
      000502 ED               [12] 2023 	mov	a,r5
      000503 F0               [24] 2024 	movx	@dptr,a
      000504 EE               [12] 2025 	mov	a,r6
      000505 A3               [24] 2026 	inc	dptr
      000506 F0               [24] 2027 	movx	@dptr,a
      000507 8F 82            [24] 2028 	mov	dpl,r7
      000509 12r02r36         [24] 2029 	lcall	_osalFindTimer
      00050C AD 82            [24] 2030 	mov	r5,dpl
      00050E AE 83            [24] 2031 	mov	r6,dph
      000510 AF F0            [24] 2032 	mov	r7,b
      000512 90r00r3E         [24] 2033 	mov	dptr,#_osal_get_timeoutEx_tmr_1_119
      000515 ED               [12] 2034 	mov	a,r5
      000516 F0               [24] 2035 	movx	@dptr,a
      000517 EE               [12] 2036 	mov	a,r6
      000518 A3               [24] 2037 	inc	dptr
      000519 F0               [24] 2038 	movx	@dptr,a
      00051A EF               [12] 2039 	mov	a,r7
      00051B A3               [24] 2040 	inc	dptr
      00051C F0               [24] 2041 	movx	@dptr,a
                                   2042 ;	../osal/common/OSAL_Timers.c:392: if ( tmr )
      00051D ED               [12] 2043 	mov	a,r5
      00051E 4E               [12] 2044 	orl	a,r6
      00051F 70 03            [24] 2045 	jnz	00117$
      000521 02r05r5E         [24] 2046 	ljmp	00109$
      000524                       2047 00117$:
                                   2048 ;	../osal/common/OSAL_Timers.c:394: rtrn = tmr->timeout.time32;
      000524 90r00r3E         [24] 2049 	mov	dptr,#_osal_get_timeoutEx_tmr_1_119
      000527 E0               [24] 2050 	movx	a,@dptr
      000528 FD               [12] 2051 	mov	r5,a
      000529 A3               [24] 2052 	inc	dptr
      00052A E0               [24] 2053 	movx	a,@dptr
      00052B FE               [12] 2054 	mov	r6,a
      00052C A3               [24] 2055 	inc	dptr
      00052D E0               [24] 2056 	movx	a,@dptr
      00052E FF               [12] 2057 	mov	r7,a
      00052F 74 03            [12] 2058 	mov	a,#0x03
      000531 2D               [12] 2059 	add	a,r5
      000532 FD               [12] 2060 	mov	r5,a
      000533 74 00            [12] 2061 	mov	a,#0x00
      000535 3E               [12] 2062 	addc	a,r6
      000536 FE               [12] 2063 	mov	r6,a
      000537 8D 82            [24] 2064 	mov	dpl,r5
      000539 8E 83            [24] 2065 	mov	dph,r6
      00053B 8F F0            [24] 2066 	mov	b,r7
      00053D 12r00r00         [24] 2067 	lcall	__gptrget
      000540 FD               [12] 2068 	mov	r5,a
      000541 A3               [24] 2069 	inc	dptr
      000542 12r00r00         [24] 2070 	lcall	__gptrget
      000545 FE               [12] 2071 	mov	r6,a
      000546 A3               [24] 2072 	inc	dptr
      000547 12r00r00         [24] 2073 	lcall	__gptrget
      00054A FF               [12] 2074 	mov	r7,a
      00054B A3               [24] 2075 	inc	dptr
      00054C 12r00r00         [24] 2076 	lcall	__gptrget
      00054F FC               [12] 2077 	mov	r4,a
      000550 90r00r3A         [24] 2078 	mov	dptr,#_osal_get_timeoutEx_rtrn_1_119
      000553 ED               [12] 2079 	mov	a,r5
      000554 F0               [24] 2080 	movx	@dptr,a
      000555 EE               [12] 2081 	mov	a,r6
      000556 A3               [24] 2082 	inc	dptr
      000557 F0               [24] 2083 	movx	@dptr,a
      000558 EF               [12] 2084 	mov	a,r7
      000559 A3               [24] 2085 	inc	dptr
      00055A F0               [24] 2086 	movx	@dptr,a
      00055B EC               [12] 2087 	mov	a,r4
      00055C A3               [24] 2088 	inc	dptr
      00055D F0               [24] 2089 	movx	@dptr,a
                                   2090 ;	../osal/common/OSAL_Timers.c:397: HAL_EXIT_CRITICAL_SECTION( intState );   // Re-enable interrupts.
      00055E                       2091 00109$:
      00055E 90r00r39         [24] 2092 	mov	dptr,#_osal_get_timeoutEx_intState_1_119
      000561 E0               [24] 2093 	movx	a,@dptr
      000562 FF               [12] 2094 	mov	r7,a
      000563 EF               [12] 2095 	mov	a,r7
      000564 24 FF            [12] 2096 	add	a,#0xff
      000566 92 AF            [24] 2097 	mov	_EA,c
                                   2098 ;	../osal/common/OSAL_Timers.c:399: return rtrn;
      000568 90r00r3A         [24] 2099 	mov	dptr,#_osal_get_timeoutEx_rtrn_1_119
      00056B E0               [24] 2100 	movx	a,@dptr
      00056C FC               [12] 2101 	mov	r4,a
      00056D A3               [24] 2102 	inc	dptr
      00056E E0               [24] 2103 	movx	a,@dptr
      00056F FD               [12] 2104 	mov	r5,a
      000570 A3               [24] 2105 	inc	dptr
      000571 E0               [24] 2106 	movx	a,@dptr
      000572 FE               [12] 2107 	mov	r6,a
      000573 A3               [24] 2108 	inc	dptr
      000574 E0               [24] 2109 	movx	a,@dptr
      000575 FF               [12] 2110 	mov	r7,a
      000576 8C 82            [24] 2111 	mov	dpl,r4
      000578 8D 83            [24] 2112 	mov	dph,r5
      00057A 8E F0            [24] 2113 	mov	b,r6
      00057C EF               [12] 2114 	mov	a,r7
      00057D                       2115 00112$:
      00057D 22               [24] 2116 	ret
                                   2117 ;------------------------------------------------------------
                                   2118 ;Allocation info for local variables in function 'osal_timer_num_active'
                                   2119 ;------------------------------------------------------------
                                   2120 ;intState                  Allocated with name '_osal_timer_num_active_intState_1_125'
                                   2121 ;num_timers                Allocated with name '_osal_timer_num_active_num_timers_1_125'
                                   2122 ;srchTimer                 Allocated with name '_osal_timer_num_active_srchTimer_1_125'
                                   2123 ;------------------------------------------------------------
                                   2124 ;	../osal/common/OSAL_Timers.c:411: uint8 osal_timer_num_active( void )
                                   2125 ;	-----------------------------------------
                                   2126 ;	 function osal_timer_num_active
                                   2127 ;	-----------------------------------------
      00057E                       2128 _osal_timer_num_active:
                                   2129 ;	../osal/common/OSAL_Timers.c:414: uint8 num_timers = 0;
      00057E 90r00r42         [24] 2130 	mov	dptr,#_osal_timer_num_active_num_timers_1_125
      000581 74 00            [12] 2131 	mov	a,#0x00
      000583 F0               [24] 2132 	movx	@dptr,a
                                   2133 ;	../osal/common/OSAL_Timers.c:417: HAL_ENTER_CRITICAL_SECTION( intState );  // Hold off interrupts.
      000584 90r00r41         [24] 2134 	mov	dptr,#_osal_timer_num_active_intState_1_125
      000587 A2 AF            [12] 2135 	mov	c,_EA
      000589 E4               [12] 2136 	clr	a
      00058A 33               [12] 2137 	rlc	a
      00058B F0               [24] 2138 	movx	@dptr,a
      00058C C2 AF            [12] 2139 	clr	_EA
                                   2140 ;	../osal/common/OSAL_Timers.c:420: srchTimer = timerHead;
      00058E 90r00r00         [24] 2141 	mov	dptr,#_timerHead
      000591 E0               [24] 2142 	movx	a,@dptr
      000592 FD               [12] 2143 	mov	r5,a
      000593 A3               [24] 2144 	inc	dptr
      000594 E0               [24] 2145 	movx	a,@dptr
      000595 FE               [12] 2146 	mov	r6,a
      000596 A3               [24] 2147 	inc	dptr
      000597 E0               [24] 2148 	movx	a,@dptr
      000598 FF               [12] 2149 	mov	r7,a
      000599 90r00r43         [24] 2150 	mov	dptr,#_osal_timer_num_active_srchTimer_1_125
      00059C ED               [12] 2151 	mov	a,r5
      00059D F0               [24] 2152 	movx	@dptr,a
      00059E EE               [12] 2153 	mov	a,r6
      00059F A3               [24] 2154 	inc	dptr
      0005A0 F0               [24] 2155 	movx	@dptr,a
      0005A1 EF               [12] 2156 	mov	a,r7
      0005A2 A3               [24] 2157 	inc	dptr
      0005A3 F0               [24] 2158 	movx	@dptr,a
                                   2159 ;	../osal/common/OSAL_Timers.c:423: while ( srchTimer != NULL )
      0005A4 90r00r42         [24] 2160 	mov	dptr,#_osal_timer_num_active_num_timers_1_125
      0005A7 E0               [24] 2161 	movx	a,@dptr
      0005A8 FF               [12] 2162 	mov	r7,a
      0005A9                       2163 00107$:
      0005A9 90r00r43         [24] 2164 	mov	dptr,#_osal_timer_num_active_srchTimer_1_125
      0005AC E0               [24] 2165 	movx	a,@dptr
      0005AD FC               [12] 2166 	mov	r4,a
      0005AE A3               [24] 2167 	inc	dptr
      0005AF E0               [24] 2168 	movx	a,@dptr
      0005B0 FD               [12] 2169 	mov	r5,a
      0005B1 A3               [24] 2170 	inc	dptr
      0005B2 E0               [24] 2171 	movx	a,@dptr
      0005B3 FE               [12] 2172 	mov	r6,a
      0005B4 EC               [12] 2173 	mov	a,r4
      0005B5 4D               [12] 2174 	orl	a,r5
      0005B6 70 03            [24] 2175 	jnz	00122$
      0005B8 02r05rE9         [24] 2176 	ljmp	00117$
      0005BB                       2177 00122$:
                                   2178 ;	../osal/common/OSAL_Timers.c:425: num_timers++;
      0005BB 0F               [12] 2179 	inc	r7
                                   2180 ;	../osal/common/OSAL_Timers.c:426: srchTimer = srchTimer->next;
      0005BC 90r00r43         [24] 2181 	mov	dptr,#_osal_timer_num_active_srchTimer_1_125
      0005BF E0               [24] 2182 	movx	a,@dptr
      0005C0 FC               [12] 2183 	mov	r4,a
      0005C1 A3               [24] 2184 	inc	dptr
      0005C2 E0               [24] 2185 	movx	a,@dptr
      0005C3 FD               [12] 2186 	mov	r5,a
      0005C4 A3               [24] 2187 	inc	dptr
      0005C5 E0               [24] 2188 	movx	a,@dptr
      0005C6 FE               [12] 2189 	mov	r6,a
      0005C7 8C 82            [24] 2190 	mov	dpl,r4
      0005C9 8D 83            [24] 2191 	mov	dph,r5
      0005CB 8E F0            [24] 2192 	mov	b,r6
      0005CD 12r00r00         [24] 2193 	lcall	__gptrget
      0005D0 FC               [12] 2194 	mov	r4,a
      0005D1 A3               [24] 2195 	inc	dptr
      0005D2 12r00r00         [24] 2196 	lcall	__gptrget
      0005D5 FD               [12] 2197 	mov	r5,a
      0005D6 A3               [24] 2198 	inc	dptr
      0005D7 12r00r00         [24] 2199 	lcall	__gptrget
      0005DA FE               [12] 2200 	mov	r6,a
      0005DB 90r00r43         [24] 2201 	mov	dptr,#_osal_timer_num_active_srchTimer_1_125
      0005DE EC               [12] 2202 	mov	a,r4
      0005DF F0               [24] 2203 	movx	@dptr,a
      0005E0 ED               [12] 2204 	mov	a,r5
      0005E1 A3               [24] 2205 	inc	dptr
      0005E2 F0               [24] 2206 	movx	@dptr,a
      0005E3 EE               [12] 2207 	mov	a,r6
      0005E4 A3               [24] 2208 	inc	dptr
      0005E5 F0               [24] 2209 	movx	@dptr,a
      0005E6 02r05rA9         [24] 2210 	ljmp	00107$
                                   2211 ;	../osal/common/OSAL_Timers.c:429: HAL_EXIT_CRITICAL_SECTION( intState );   // Re-enable interrupts.
      0005E9                       2212 00117$:
      0005E9 90r00r42         [24] 2213 	mov	dptr,#_osal_timer_num_active_num_timers_1_125
      0005EC EF               [12] 2214 	mov	a,r7
      0005ED F0               [24] 2215 	movx	@dptr,a
      0005EE 90r00r41         [24] 2216 	mov	dptr,#_osal_timer_num_active_intState_1_125
      0005F1 E0               [24] 2217 	movx	a,@dptr
      0005F2 FF               [12] 2218 	mov	r7,a
      0005F3 EF               [12] 2219 	mov	a,r7
      0005F4 24 FF            [12] 2220 	add	a,#0xff
      0005F6 92 AF            [24] 2221 	mov	_EA,c
                                   2222 ;	../osal/common/OSAL_Timers.c:431: return num_timers;
      0005F8 90r00r42         [24] 2223 	mov	dptr,#_osal_timer_num_active_num_timers_1_125
      0005FB E0               [24] 2224 	movx	a,@dptr
      0005FC FF               [12] 2225 	mov	r7,a
      0005FD 8F 82            [24] 2226 	mov	dpl,r7
      0005FF                       2227 00113$:
      0005FF 22               [24] 2228 	ret
                                   2229 ;------------------------------------------------------------
                                   2230 ;Allocation info for local variables in function 'osalTimerUpdate'
                                   2231 ;------------------------------------------------------------
                                   2232 ;sloc0                     Allocated with name '_osalTimerUpdate_sloc0_1_0'
                                   2233 ;updateTime                Allocated with name '_osalTimerUpdate_updateTime_1_130'
                                   2234 ;intState                  Allocated with name '_osalTimerUpdate_intState_1_131'
                                   2235 ;srchTimer                 Allocated with name '_osalTimerUpdate_srchTimer_1_131'
                                   2236 ;prevTimer                 Allocated with name '_osalTimerUpdate_prevTimer_1_131'
                                   2237 ;timeUnion                 Allocated with name '_osalTimerUpdate_timeUnion_1_131'
                                   2238 ;freeTimer                 Allocated with name '_osalTimerUpdate_freeTimer_3_133'
                                   2239 ;------------------------------------------------------------
                                   2240 ;	../osal/common/OSAL_Timers.c:443: void osalTimerUpdate( uint32 updateTime )
                                   2241 ;	-----------------------------------------
                                   2242 ;	 function osalTimerUpdate
                                   2243 ;	-----------------------------------------
      000600                       2244 _osalTimerUpdate:
      000600 AF 82            [24] 2245 	mov	r7,dpl
      000602 AE 83            [24] 2246 	mov	r6,dph
      000604 AD F0            [24] 2247 	mov	r5,b
      000606 FC               [12] 2248 	mov	r4,a
      000607 90r00r46         [24] 2249 	mov	dptr,#_osalTimerUpdate_updateTime_1_130
      00060A EF               [12] 2250 	mov	a,r7
      00060B F0               [24] 2251 	movx	@dptr,a
      00060C EE               [12] 2252 	mov	a,r6
      00060D A3               [24] 2253 	inc	dptr
      00060E F0               [24] 2254 	movx	@dptr,a
      00060F ED               [12] 2255 	mov	a,r5
      000610 A3               [24] 2256 	inc	dptr
      000611 F0               [24] 2257 	movx	@dptr,a
      000612 EC               [12] 2258 	mov	a,r4
      000613 A3               [24] 2259 	inc	dptr
      000614 F0               [24] 2260 	movx	@dptr,a
                                   2261 ;	../osal/common/OSAL_Timers.c:450: timeUnion.time32 = updateTime;
      000615 90r00r46         [24] 2262 	mov	dptr,#_osalTimerUpdate_updateTime_1_130
      000618 E0               [24] 2263 	movx	a,@dptr
      000619 FC               [12] 2264 	mov	r4,a
      00061A A3               [24] 2265 	inc	dptr
      00061B E0               [24] 2266 	movx	a,@dptr
      00061C FD               [12] 2267 	mov	r5,a
      00061D A3               [24] 2268 	inc	dptr
      00061E E0               [24] 2269 	movx	a,@dptr
      00061F FE               [12] 2270 	mov	r6,a
      000620 A3               [24] 2271 	inc	dptr
      000621 E0               [24] 2272 	movx	a,@dptr
      000622 FF               [12] 2273 	mov	r7,a
      000623 90r00r50         [24] 2274 	mov	dptr,#_osalTimerUpdate_timeUnion_1_131
      000626 EC               [12] 2275 	mov	a,r4
      000627 F0               [24] 2276 	movx	@dptr,a
      000628 ED               [12] 2277 	mov	a,r5
      000629 A3               [24] 2278 	inc	dptr
      00062A F0               [24] 2279 	movx	@dptr,a
      00062B EE               [12] 2280 	mov	a,r6
      00062C A3               [24] 2281 	inc	dptr
      00062D F0               [24] 2282 	movx	@dptr,a
      00062E EF               [12] 2283 	mov	a,r7
      00062F A3               [24] 2284 	inc	dptr
      000630 F0               [24] 2285 	movx	@dptr,a
                                   2286 ;	../osal/common/OSAL_Timers.c:457: osal_systemClock += updateTime;
      000631 90r00r03         [24] 2287 	mov	dptr,#_osal_systemClock
      000634 E0               [24] 2288 	movx	a,@dptr
      000635 F8               [12] 2289 	mov	r0,a
      000636 A3               [24] 2290 	inc	dptr
      000637 E0               [24] 2291 	movx	a,@dptr
      000638 F9               [12] 2292 	mov	r1,a
      000639 A3               [24] 2293 	inc	dptr
      00063A E0               [24] 2294 	movx	a,@dptr
      00063B FA               [12] 2295 	mov	r2,a
      00063C A3               [24] 2296 	inc	dptr
      00063D E0               [24] 2297 	movx	a,@dptr
      00063E FB               [12] 2298 	mov	r3,a
      00063F 90r00r03         [24] 2299 	mov	dptr,#_osal_systemClock
      000642 EC               [12] 2300 	mov	a,r4
      000643 28               [12] 2301 	add	a,r0
      000644 F0               [24] 2302 	movx	@dptr,a
      000645 ED               [12] 2303 	mov	a,r5
      000646 39               [12] 2304 	addc	a,r1
      000647 A3               [24] 2305 	inc	dptr
      000648 F0               [24] 2306 	movx	@dptr,a
      000649 EE               [12] 2307 	mov	a,r6
      00064A 3A               [12] 2308 	addc	a,r2
      00064B A3               [24] 2309 	inc	dptr
      00064C F0               [24] 2310 	movx	@dptr,a
      00064D EF               [12] 2311 	mov	a,r7
      00064E 3B               [12] 2312 	addc	a,r3
      00064F A3               [24] 2313 	inc	dptr
      000650 F0               [24] 2314 	movx	@dptr,a
                                   2315 ;	../osal/common/OSAL_Timers.c:461: if ( timerHead != NULL )
      000651 90r00r00         [24] 2316 	mov	dptr,#_timerHead
      000654 E0               [24] 2317 	movx	a,@dptr
      000655 FD               [12] 2318 	mov	r5,a
      000656 A3               [24] 2319 	inc	dptr
      000657 E0               [24] 2320 	movx	a,@dptr
      000658 FE               [12] 2321 	mov	r6,a
      000659 A3               [24] 2322 	inc	dptr
      00065A E0               [24] 2323 	movx	a,@dptr
      00065B FF               [12] 2324 	mov	r7,a
      00065C ED               [12] 2325 	mov	a,r5
      00065D 4E               [12] 2326 	orl	a,r6
      00065E 70 03            [24] 2327 	jnz	00190$
      000660 02r0Cr39         [24] 2328 	ljmp	00137$
      000663                       2329 00190$:
                                   2330 ;	../osal/common/OSAL_Timers.c:464: srchTimer = timerHead;
      000663 90r00r00         [24] 2331 	mov	dptr,#_timerHead
      000666 E0               [24] 2332 	movx	a,@dptr
      000667 FD               [12] 2333 	mov	r5,a
      000668 A3               [24] 2334 	inc	dptr
      000669 E0               [24] 2335 	movx	a,@dptr
      00066A FE               [12] 2336 	mov	r6,a
      00066B A3               [24] 2337 	inc	dptr
      00066C E0               [24] 2338 	movx	a,@dptr
      00066D FF               [12] 2339 	mov	r7,a
      00066E 90r00r4A         [24] 2340 	mov	dptr,#_osalTimerUpdate_srchTimer_1_131
      000671 ED               [12] 2341 	mov	a,r5
      000672 F0               [24] 2342 	movx	@dptr,a
      000673 EE               [12] 2343 	mov	a,r6
      000674 A3               [24] 2344 	inc	dptr
      000675 F0               [24] 2345 	movx	@dptr,a
      000676 EF               [12] 2346 	mov	a,r7
      000677 A3               [24] 2347 	inc	dptr
      000678 F0               [24] 2348 	movx	@dptr,a
                                   2349 ;	../osal/common/OSAL_Timers.c:465: prevTimer = (void *)NULL;
      000679 90r00r4D         [24] 2350 	mov	dptr,#_osalTimerUpdate_prevTimer_1_131
      00067C 74 00            [12] 2351 	mov	a,#0x00
      00067E F0               [24] 2352 	movx	@dptr,a
      00067F A3               [24] 2353 	inc	dptr
      000680 F0               [24] 2354 	movx	@dptr,a
      000681 A3               [24] 2355 	inc	dptr
      000682 F0               [24] 2356 	movx	@dptr,a
                                   2357 ;	../osal/common/OSAL_Timers.c:480: while ( srchTimer )
      000683                       2358 00132$:
      000683 90r00r4A         [24] 2359 	mov	dptr,#_osalTimerUpdate_srchTimer_1_131
      000686 E0               [24] 2360 	movx	a,@dptr
      000687 FD               [12] 2361 	mov	r5,a
      000688 A3               [24] 2362 	inc	dptr
      000689 E0               [24] 2363 	movx	a,@dptr
      00068A FE               [12] 2364 	mov	r6,a
      00068B A3               [24] 2365 	inc	dptr
      00068C E0               [24] 2366 	movx	a,@dptr
      00068D FF               [12] 2367 	mov	r7,a
      00068E ED               [12] 2368 	mov	a,r5
      00068F 4E               [12] 2369 	orl	a,r6
      000690 70 03            [24] 2370 	jnz	00191$
      000692 02r0Cr39         [24] 2371 	ljmp	00137$
      000695                       2372 00191$:
                                   2373 ;	../osal/common/OSAL_Timers.c:482: osalTimerRec_t *freeTimer = NULL;
      000695 90r00r54         [24] 2374 	mov	dptr,#_osalTimerUpdate_freeTimer_3_133
      000698 74 00            [12] 2375 	mov	a,#0x00
      00069A F0               [24] 2376 	movx	@dptr,a
      00069B A3               [24] 2377 	inc	dptr
      00069C F0               [24] 2378 	movx	@dptr,a
      00069D A3               [24] 2379 	inc	dptr
      00069E F0               [24] 2380 	movx	@dptr,a
                                   2381 ;	../osal/common/OSAL_Timers.c:501: if ((timeUnion.time16[1] == 0) && (timeUnion.time8[1] == 0))
      00069F 90r00r52         [24] 2382 	mov	dptr,#(_osalTimerUpdate_timeUnion_1_131 + 0x0002)
      0006A2 E0               [24] 2383 	movx	a,@dptr
      0006A3 FE               [12] 2384 	mov	r6,a
      0006A4 A3               [24] 2385 	inc	dptr
      0006A5 E0               [24] 2386 	movx	a,@dptr
      0006A6 FF               [12] 2387 	mov	r7,a
      0006A7 EE               [12] 2388 	mov	a,r6
      0006A8 4F               [12] 2389 	orl	a,r7
      0006A9 60 03            [24] 2390 	jz	00192$
      0006AB 02r07rF4         [24] 2391 	ljmp	00111$
      0006AE                       2392 00192$:
      0006AE 90r00r51         [24] 2393 	mov	dptr,#(_osalTimerUpdate_timeUnion_1_131 + 0x0001)
      0006B1 E0               [24] 2394 	movx	a,@dptr
      0006B2 60 03            [24] 2395 	jz	00193$
      0006B4 02r07rF4         [24] 2396 	ljmp	00111$
      0006B7                       2397 00193$:
                                   2398 ;	../osal/common/OSAL_Timers.c:504: if (srchTimer->timeout.time8[0] >= timeUnion.time8[0])
      0006B7 90r00r4A         [24] 2399 	mov	dptr,#_osalTimerUpdate_srchTimer_1_131
      0006BA E0               [24] 2400 	movx	a,@dptr
      0006BB FD               [12] 2401 	mov	r5,a
      0006BC A3               [24] 2402 	inc	dptr
      0006BD E0               [24] 2403 	movx	a,@dptr
      0006BE FE               [12] 2404 	mov	r6,a
      0006BF A3               [24] 2405 	inc	dptr
      0006C0 E0               [24] 2406 	movx	a,@dptr
      0006C1 FF               [12] 2407 	mov	r7,a
      0006C2 74 03            [12] 2408 	mov	a,#0x03
      0006C4 2D               [12] 2409 	add	a,r5
      0006C5 FD               [12] 2410 	mov	r5,a
      0006C6 74 00            [12] 2411 	mov	a,#0x00
      0006C8 3E               [12] 2412 	addc	a,r6
      0006C9 FE               [12] 2413 	mov	r6,a
      0006CA 8D 82            [24] 2414 	mov	dpl,r5
      0006CC 8E 83            [24] 2415 	mov	dph,r6
      0006CE 8F F0            [24] 2416 	mov	b,r7
      0006D0 12r00r00         [24] 2417 	lcall	__gptrget
      0006D3 FD               [12] 2418 	mov	r5,a
      0006D4 90r00r50         [24] 2419 	mov	dptr,#_osalTimerUpdate_timeUnion_1_131
      0006D7 E0               [24] 2420 	movx	a,@dptr
      0006D8 FF               [12] 2421 	mov	r7,a
      0006D9 C3               [12] 2422 	clr	c
      0006DA ED               [12] 2423 	mov	a,r5
      0006DB 9F               [12] 2424 	subb	a,r7
      0006DC 50 03            [24] 2425 	jnc	00194$
      0006DE 02r07r14         [24] 2426 	ljmp	00105$
      0006E1                       2427 00194$:
                                   2428 ;	../osal/common/OSAL_Timers.c:507: srchTimer->timeout.time8[0] -= timeUnion.time8[0];
      0006E1 90r00r4A         [24] 2429 	mov	dptr,#_osalTimerUpdate_srchTimer_1_131
      0006E4 E0               [24] 2430 	movx	a,@dptr
      0006E5 FD               [12] 2431 	mov	r5,a
      0006E6 A3               [24] 2432 	inc	dptr
      0006E7 E0               [24] 2433 	movx	a,@dptr
      0006E8 FE               [12] 2434 	mov	r6,a
      0006E9 A3               [24] 2435 	inc	dptr
      0006EA E0               [24] 2436 	movx	a,@dptr
      0006EB FF               [12] 2437 	mov	r7,a
      0006EC 74 03            [12] 2438 	mov	a,#0x03
      0006EE 2D               [12] 2439 	add	a,r5
      0006EF FD               [12] 2440 	mov	r5,a
      0006F0 74 00            [12] 2441 	mov	a,#0x00
      0006F2 3E               [12] 2442 	addc	a,r6
      0006F3 FE               [12] 2443 	mov	r6,a
      0006F4 90r00r50         [24] 2444 	mov	dptr,#_osalTimerUpdate_timeUnion_1_131
      0006F7 E0               [24] 2445 	movx	a,@dptr
      0006F8 FC               [12] 2446 	mov	r4,a
      0006F9 8D 82            [24] 2447 	mov	dpl,r5
      0006FB 8E 83            [24] 2448 	mov	dph,r6
      0006FD 8F F0            [24] 2449 	mov	b,r7
      0006FF 12r00r00         [24] 2450 	lcall	__gptrget
      000702 FB               [12] 2451 	mov	r3,a
      000703 EB               [12] 2452 	mov	a,r3
      000704 C3               [12] 2453 	clr	c
      000705 9C               [12] 2454 	subb	a,r4
      000706 FC               [12] 2455 	mov	r4,a
      000707 8D 82            [24] 2456 	mov	dpl,r5
      000709 8E 83            [24] 2457 	mov	dph,r6
      00070B 8F F0            [24] 2458 	mov	b,r7
      00070D EC               [12] 2459 	mov	a,r4
      00070E 12r00r00         [24] 2460 	lcall	__gptrput
      000711 02r08rD1         [24] 2461 	ljmp	00112$
      000714                       2462 00105$:
                                   2463 ;	../osal/common/OSAL_Timers.c:512: if (srchTimer->timeout.time32 > timeUnion.time32)
      000714 90r00r4A         [24] 2464 	mov	dptr,#_osalTimerUpdate_srchTimer_1_131
      000717 E0               [24] 2465 	movx	a,@dptr
      000718 FD               [12] 2466 	mov	r5,a
      000719 A3               [24] 2467 	inc	dptr
      00071A E0               [24] 2468 	movx	a,@dptr
      00071B FE               [12] 2469 	mov	r6,a
      00071C A3               [24] 2470 	inc	dptr
      00071D E0               [24] 2471 	movx	a,@dptr
      00071E FF               [12] 2472 	mov	r7,a
      00071F 74 03            [12] 2473 	mov	a,#0x03
      000721 2D               [12] 2474 	add	a,r5
      000722 FD               [12] 2475 	mov	r5,a
      000723 74 00            [12] 2476 	mov	a,#0x00
      000725 3E               [12] 2477 	addc	a,r6
      000726 FE               [12] 2478 	mov	r6,a
      000727 8D 82            [24] 2479 	mov	dpl,r5
      000729 8E 83            [24] 2480 	mov	dph,r6
      00072B 8F F0            [24] 2481 	mov	b,r7
      00072D 12r00r00         [24] 2482 	lcall	__gptrget
      000730 FD               [12] 2483 	mov	r5,a
      000731 A3               [24] 2484 	inc	dptr
      000732 12r00r00         [24] 2485 	lcall	__gptrget
      000735 FE               [12] 2486 	mov	r6,a
      000736 A3               [24] 2487 	inc	dptr
      000737 12r00r00         [24] 2488 	lcall	__gptrget
      00073A FF               [12] 2489 	mov	r7,a
      00073B A3               [24] 2490 	inc	dptr
      00073C 12r00r00         [24] 2491 	lcall	__gptrget
      00073F FC               [12] 2492 	mov	r4,a
      000740 90r00r50         [24] 2493 	mov	dptr,#_osalTimerUpdate_timeUnion_1_131
      000743 E0               [24] 2494 	movx	a,@dptr
      000744 F8               [12] 2495 	mov	r0,a
      000745 A3               [24] 2496 	inc	dptr
      000746 E0               [24] 2497 	movx	a,@dptr
      000747 F9               [12] 2498 	mov	r1,a
      000748 A3               [24] 2499 	inc	dptr
      000749 E0               [24] 2500 	movx	a,@dptr
      00074A FA               [12] 2501 	mov	r2,a
      00074B A3               [24] 2502 	inc	dptr
      00074C E0               [24] 2503 	movx	a,@dptr
      00074D FB               [12] 2504 	mov	r3,a
      00074E C3               [12] 2505 	clr	c
      00074F E8               [12] 2506 	mov	a,r0
      000750 9D               [12] 2507 	subb	a,r5
      000751 E9               [12] 2508 	mov	a,r1
      000752 9E               [12] 2509 	subb	a,r6
      000753 EA               [12] 2510 	mov	a,r2
      000754 9F               [12] 2511 	subb	a,r7
      000755 EB               [12] 2512 	mov	a,r3
      000756 9C               [12] 2513 	subb	a,r4
      000757 40 03            [24] 2514 	jc	00195$
      000759 02r07rC7         [24] 2515 	ljmp	00102$
      00075C                       2516 00195$:
                                   2517 ;	../osal/common/OSAL_Timers.c:514: srchTimer->timeout.time32 -= timeUnion.time32;
      00075C 90r00r4A         [24] 2518 	mov	dptr,#_osalTimerUpdate_srchTimer_1_131
      00075F E0               [24] 2519 	movx	a,@dptr
      000760 FD               [12] 2520 	mov	r5,a
      000761 A3               [24] 2521 	inc	dptr
      000762 E0               [24] 2522 	movx	a,@dptr
      000763 FE               [12] 2523 	mov	r6,a
      000764 A3               [24] 2524 	inc	dptr
      000765 E0               [24] 2525 	movx	a,@dptr
      000766 FF               [12] 2526 	mov	r7,a
      000767 74 03            [12] 2527 	mov	a,#0x03
      000769 2D               [12] 2528 	add	a,r5
      00076A FD               [12] 2529 	mov	r5,a
      00076B 74 00            [12] 2530 	mov	a,#0x00
      00076D 3E               [12] 2531 	addc	a,r6
      00076E FE               [12] 2532 	mov	r6,a
      00076F 8D 82            [24] 2533 	mov	dpl,r5
      000771 8E 83            [24] 2534 	mov	dph,r6
      000773 8F F0            [24] 2535 	mov	b,r7
      000775 12r00r00         [24] 2536 	lcall	__gptrget
      000778 F5*03            [12] 2537 	mov	_osalTimerUpdate_sloc0_1_0,a
      00077A A3               [24] 2538 	inc	dptr
      00077B 12r00r00         [24] 2539 	lcall	__gptrget
      00077E F5*04            [12] 2540 	mov	(_osalTimerUpdate_sloc0_1_0 + 1),a
      000780 A3               [24] 2541 	inc	dptr
      000781 12r00r00         [24] 2542 	lcall	__gptrget
      000784 F5*05            [12] 2543 	mov	(_osalTimerUpdate_sloc0_1_0 + 2),a
      000786 A3               [24] 2544 	inc	dptr
      000787 12r00r00         [24] 2545 	lcall	__gptrget
      00078A F5*06            [12] 2546 	mov	(_osalTimerUpdate_sloc0_1_0 + 3),a
      00078C 90r00r50         [24] 2547 	mov	dptr,#_osalTimerUpdate_timeUnion_1_131
      00078F E0               [24] 2548 	movx	a,@dptr
      000790 F8               [12] 2549 	mov	r0,a
      000791 A3               [24] 2550 	inc	dptr
      000792 E0               [24] 2551 	movx	a,@dptr
      000793 FA               [12] 2552 	mov	r2,a
      000794 A3               [24] 2553 	inc	dptr
      000795 E0               [24] 2554 	movx	a,@dptr
      000796 FB               [12] 2555 	mov	r3,a
      000797 A3               [24] 2556 	inc	dptr
      000798 E0               [24] 2557 	movx	a,@dptr
      000799 FC               [12] 2558 	mov	r4,a
      00079A E5*03            [12] 2559 	mov	a,_osalTimerUpdate_sloc0_1_0
      00079C C3               [12] 2560 	clr	c
      00079D 98               [12] 2561 	subb	a,r0
      00079E F8               [12] 2562 	mov	r0,a
      00079F E5*04            [12] 2563 	mov	a,(_osalTimerUpdate_sloc0_1_0 + 1)
      0007A1 9A               [12] 2564 	subb	a,r2
      0007A2 FA               [12] 2565 	mov	r2,a
      0007A3 E5*05            [12] 2566 	mov	a,(_osalTimerUpdate_sloc0_1_0 + 2)
      0007A5 9B               [12] 2567 	subb	a,r3
      0007A6 FB               [12] 2568 	mov	r3,a
      0007A7 E5*06            [12] 2569 	mov	a,(_osalTimerUpdate_sloc0_1_0 + 3)
      0007A9 9C               [12] 2570 	subb	a,r4
      0007AA FC               [12] 2571 	mov	r4,a
      0007AB 8D 82            [24] 2572 	mov	dpl,r5
      0007AD 8E 83            [24] 2573 	mov	dph,r6
      0007AF 8F F0            [24] 2574 	mov	b,r7
      0007B1 E8               [12] 2575 	mov	a,r0
      0007B2 12r00r00         [24] 2576 	lcall	__gptrput
      0007B5 A3               [24] 2577 	inc	dptr
      0007B6 EA               [12] 2578 	mov	a,r2
      0007B7 12r00r00         [24] 2579 	lcall	__gptrput
      0007BA A3               [24] 2580 	inc	dptr
      0007BB EB               [12] 2581 	mov	a,r3
      0007BC 12r00r00         [24] 2582 	lcall	__gptrput
      0007BF A3               [24] 2583 	inc	dptr
      0007C0 EC               [12] 2584 	mov	a,r4
      0007C1 12r00r00         [24] 2585 	lcall	__gptrput
      0007C4 02r08rD1         [24] 2586 	ljmp	00112$
      0007C7                       2587 00102$:
                                   2588 ;	../osal/common/OSAL_Timers.c:518: srchTimer->timeout.time32 = 0;
      0007C7 90r00r4A         [24] 2589 	mov	dptr,#_osalTimerUpdate_srchTimer_1_131
      0007CA E0               [24] 2590 	movx	a,@dptr
      0007CB FD               [12] 2591 	mov	r5,a
      0007CC A3               [24] 2592 	inc	dptr
      0007CD E0               [24] 2593 	movx	a,@dptr
      0007CE FE               [12] 2594 	mov	r6,a
      0007CF A3               [24] 2595 	inc	dptr
      0007D0 E0               [24] 2596 	movx	a,@dptr
      0007D1 FF               [12] 2597 	mov	r7,a
      0007D2 74 03            [12] 2598 	mov	a,#0x03
      0007D4 2D               [12] 2599 	add	a,r5
      0007D5 FD               [12] 2600 	mov	r5,a
      0007D6 74 00            [12] 2601 	mov	a,#0x00
      0007D8 3E               [12] 2602 	addc	a,r6
      0007D9 FE               [12] 2603 	mov	r6,a
      0007DA 8D 82            [24] 2604 	mov	dpl,r5
      0007DC 8E 83            [24] 2605 	mov	dph,r6
      0007DE 8F F0            [24] 2606 	mov	b,r7
      0007E0 74 00            [12] 2607 	mov	a,#0x00
      0007E2 12r00r00         [24] 2608 	lcall	__gptrput
      0007E5 A3               [24] 2609 	inc	dptr
      0007E6 12r00r00         [24] 2610 	lcall	__gptrput
      0007E9 A3               [24] 2611 	inc	dptr
      0007EA 12r00r00         [24] 2612 	lcall	__gptrput
      0007ED A3               [24] 2613 	inc	dptr
      0007EE 12r00r00         [24] 2614 	lcall	__gptrput
      0007F1 02r08rD1         [24] 2615 	ljmp	00112$
      0007F4                       2616 00111$:
                                   2617 ;	../osal/common/OSAL_Timers.c:525: if (srchTimer->timeout.time32 > timeUnion.time32)
      0007F4 90r00r4A         [24] 2618 	mov	dptr,#_osalTimerUpdate_srchTimer_1_131
      0007F7 E0               [24] 2619 	movx	a,@dptr
      0007F8 FD               [12] 2620 	mov	r5,a
      0007F9 A3               [24] 2621 	inc	dptr
      0007FA E0               [24] 2622 	movx	a,@dptr
      0007FB FE               [12] 2623 	mov	r6,a
      0007FC A3               [24] 2624 	inc	dptr
      0007FD E0               [24] 2625 	movx	a,@dptr
      0007FE FF               [12] 2626 	mov	r7,a
      0007FF 74 03            [12] 2627 	mov	a,#0x03
      000801 2D               [12] 2628 	add	a,r5
      000802 FD               [12] 2629 	mov	r5,a
      000803 74 00            [12] 2630 	mov	a,#0x00
      000805 3E               [12] 2631 	addc	a,r6
      000806 FE               [12] 2632 	mov	r6,a
      000807 8D 82            [24] 2633 	mov	dpl,r5
      000809 8E 83            [24] 2634 	mov	dph,r6
      00080B 8F F0            [24] 2635 	mov	b,r7
      00080D 12r00r00         [24] 2636 	lcall	__gptrget
      000810 FD               [12] 2637 	mov	r5,a
      000811 A3               [24] 2638 	inc	dptr
      000812 12r00r00         [24] 2639 	lcall	__gptrget
      000815 FE               [12] 2640 	mov	r6,a
      000816 A3               [24] 2641 	inc	dptr
      000817 12r00r00         [24] 2642 	lcall	__gptrget
      00081A FF               [12] 2643 	mov	r7,a
      00081B A3               [24] 2644 	inc	dptr
      00081C 12r00r00         [24] 2645 	lcall	__gptrget
      00081F FC               [12] 2646 	mov	r4,a
      000820 90r00r50         [24] 2647 	mov	dptr,#_osalTimerUpdate_timeUnion_1_131
      000823 E0               [24] 2648 	movx	a,@dptr
      000824 F8               [12] 2649 	mov	r0,a
      000825 A3               [24] 2650 	inc	dptr
      000826 E0               [24] 2651 	movx	a,@dptr
      000827 F9               [12] 2652 	mov	r1,a
      000828 A3               [24] 2653 	inc	dptr
      000829 E0               [24] 2654 	movx	a,@dptr
      00082A FA               [12] 2655 	mov	r2,a
      00082B A3               [24] 2656 	inc	dptr
      00082C E0               [24] 2657 	movx	a,@dptr
      00082D FB               [12] 2658 	mov	r3,a
      00082E C3               [12] 2659 	clr	c
      00082F E8               [12] 2660 	mov	a,r0
      000830 9D               [12] 2661 	subb	a,r5
      000831 E9               [12] 2662 	mov	a,r1
      000832 9E               [12] 2663 	subb	a,r6
      000833 EA               [12] 2664 	mov	a,r2
      000834 9F               [12] 2665 	subb	a,r7
      000835 EB               [12] 2666 	mov	a,r3
      000836 9C               [12] 2667 	subb	a,r4
      000837 40 03            [24] 2668 	jc	00196$
      000839 02r08rA7         [24] 2669 	ljmp	00108$
      00083C                       2670 00196$:
                                   2671 ;	../osal/common/OSAL_Timers.c:527: srchTimer->timeout.time32 -= timeUnion.time32;
      00083C 90r00r4A         [24] 2672 	mov	dptr,#_osalTimerUpdate_srchTimer_1_131
      00083F E0               [24] 2673 	movx	a,@dptr
      000840 FD               [12] 2674 	mov	r5,a
      000841 A3               [24] 2675 	inc	dptr
      000842 E0               [24] 2676 	movx	a,@dptr
      000843 FE               [12] 2677 	mov	r6,a
      000844 A3               [24] 2678 	inc	dptr
      000845 E0               [24] 2679 	movx	a,@dptr
      000846 FF               [12] 2680 	mov	r7,a
      000847 74 03            [12] 2681 	mov	a,#0x03
      000849 2D               [12] 2682 	add	a,r5
      00084A FD               [12] 2683 	mov	r5,a
      00084B 74 00            [12] 2684 	mov	a,#0x00
      00084D 3E               [12] 2685 	addc	a,r6
      00084E FE               [12] 2686 	mov	r6,a
      00084F 8D 82            [24] 2687 	mov	dpl,r5
      000851 8E 83            [24] 2688 	mov	dph,r6
      000853 8F F0            [24] 2689 	mov	b,r7
      000855 12r00r00         [24] 2690 	lcall	__gptrget
      000858 F5*03            [12] 2691 	mov	_osalTimerUpdate_sloc0_1_0,a
      00085A A3               [24] 2692 	inc	dptr
      00085B 12r00r00         [24] 2693 	lcall	__gptrget
      00085E F5*04            [12] 2694 	mov	(_osalTimerUpdate_sloc0_1_0 + 1),a
      000860 A3               [24] 2695 	inc	dptr
      000861 12r00r00         [24] 2696 	lcall	__gptrget
      000864 F5*05            [12] 2697 	mov	(_osalTimerUpdate_sloc0_1_0 + 2),a
      000866 A3               [24] 2698 	inc	dptr
      000867 12r00r00         [24] 2699 	lcall	__gptrget
      00086A F5*06            [12] 2700 	mov	(_osalTimerUpdate_sloc0_1_0 + 3),a
      00086C 90r00r50         [24] 2701 	mov	dptr,#_osalTimerUpdate_timeUnion_1_131
      00086F E0               [24] 2702 	movx	a,@dptr
      000870 F8               [12] 2703 	mov	r0,a
      000871 A3               [24] 2704 	inc	dptr
      000872 E0               [24] 2705 	movx	a,@dptr
      000873 FA               [12] 2706 	mov	r2,a
      000874 A3               [24] 2707 	inc	dptr
      000875 E0               [24] 2708 	movx	a,@dptr
      000876 FB               [12] 2709 	mov	r3,a
      000877 A3               [24] 2710 	inc	dptr
      000878 E0               [24] 2711 	movx	a,@dptr
      000879 FC               [12] 2712 	mov	r4,a
      00087A E5*03            [12] 2713 	mov	a,_osalTimerUpdate_sloc0_1_0
      00087C C3               [12] 2714 	clr	c
      00087D 98               [12] 2715 	subb	a,r0
      00087E F8               [12] 2716 	mov	r0,a
      00087F E5*04            [12] 2717 	mov	a,(_osalTimerUpdate_sloc0_1_0 + 1)
      000881 9A               [12] 2718 	subb	a,r2
      000882 FA               [12] 2719 	mov	r2,a
      000883 E5*05            [12] 2720 	mov	a,(_osalTimerUpdate_sloc0_1_0 + 2)
      000885 9B               [12] 2721 	subb	a,r3
      000886 FB               [12] 2722 	mov	r3,a
      000887 E5*06            [12] 2723 	mov	a,(_osalTimerUpdate_sloc0_1_0 + 3)
      000889 9C               [12] 2724 	subb	a,r4
      00088A FC               [12] 2725 	mov	r4,a
      00088B 8D 82            [24] 2726 	mov	dpl,r5
      00088D 8E 83            [24] 2727 	mov	dph,r6
      00088F 8F F0            [24] 2728 	mov	b,r7
      000891 E8               [12] 2729 	mov	a,r0
      000892 12r00r00         [24] 2730 	lcall	__gptrput
      000895 A3               [24] 2731 	inc	dptr
      000896 EA               [12] 2732 	mov	a,r2
      000897 12r00r00         [24] 2733 	lcall	__gptrput
      00089A A3               [24] 2734 	inc	dptr
      00089B EB               [12] 2735 	mov	a,r3
      00089C 12r00r00         [24] 2736 	lcall	__gptrput
      00089F A3               [24] 2737 	inc	dptr
      0008A0 EC               [12] 2738 	mov	a,r4
      0008A1 12r00r00         [24] 2739 	lcall	__gptrput
      0008A4 02r08rD1         [24] 2740 	ljmp	00112$
      0008A7                       2741 00108$:
                                   2742 ;	../osal/common/OSAL_Timers.c:531: srchTimer->timeout.time32 = 0;
      0008A7 90r00r4A         [24] 2743 	mov	dptr,#_osalTimerUpdate_srchTimer_1_131
      0008AA E0               [24] 2744 	movx	a,@dptr
      0008AB FD               [12] 2745 	mov	r5,a
      0008AC A3               [24] 2746 	inc	dptr
      0008AD E0               [24] 2747 	movx	a,@dptr
      0008AE FE               [12] 2748 	mov	r6,a
      0008AF A3               [24] 2749 	inc	dptr
      0008B0 E0               [24] 2750 	movx	a,@dptr
      0008B1 FF               [12] 2751 	mov	r7,a
      0008B2 74 03            [12] 2752 	mov	a,#0x03
      0008B4 2D               [12] 2753 	add	a,r5
      0008B5 FD               [12] 2754 	mov	r5,a
      0008B6 74 00            [12] 2755 	mov	a,#0x00
      0008B8 3E               [12] 2756 	addc	a,r6
      0008B9 FE               [12] 2757 	mov	r6,a
      0008BA 8D 82            [24] 2758 	mov	dpl,r5
      0008BC 8E 83            [24] 2759 	mov	dph,r6
      0008BE 8F F0            [24] 2760 	mov	b,r7
      0008C0 74 00            [12] 2761 	mov	a,#0x00
      0008C2 12r00r00         [24] 2762 	lcall	__gptrput
      0008C5 A3               [24] 2763 	inc	dptr
      0008C6 12r00r00         [24] 2764 	lcall	__gptrput
      0008C9 A3               [24] 2765 	inc	dptr
      0008CA 12r00r00         [24] 2766 	lcall	__gptrput
      0008CD A3               [24] 2767 	inc	dptr
      0008CE 12r00r00         [24] 2768 	lcall	__gptrput
      0008D1                       2769 00112$:
                                   2770 ;	../osal/common/OSAL_Timers.c:536: if ( (srchTimer->timeout.time16[0] == 0) && (srchTimer->timeout.time16[1] == 0) &&
      0008D1 90r00r4A         [24] 2771 	mov	dptr,#_osalTimerUpdate_srchTimer_1_131
      0008D4 E0               [24] 2772 	movx	a,@dptr
      0008D5 FD               [12] 2773 	mov	r5,a
      0008D6 A3               [24] 2774 	inc	dptr
      0008D7 E0               [24] 2775 	movx	a,@dptr
      0008D8 FE               [12] 2776 	mov	r6,a
      0008D9 A3               [24] 2777 	inc	dptr
      0008DA E0               [24] 2778 	movx	a,@dptr
      0008DB FF               [12] 2779 	mov	r7,a
      0008DC 74 03            [12] 2780 	mov	a,#0x03
      0008DE 2D               [12] 2781 	add	a,r5
      0008DF FD               [12] 2782 	mov	r5,a
      0008E0 74 00            [12] 2783 	mov	a,#0x00
      0008E2 3E               [12] 2784 	addc	a,r6
      0008E3 FE               [12] 2785 	mov	r6,a
      0008E4 8D 82            [24] 2786 	mov	dpl,r5
      0008E6 8E 83            [24] 2787 	mov	dph,r6
      0008E8 8F F0            [24] 2788 	mov	b,r7
      0008EA 12r00r00         [24] 2789 	lcall	__gptrget
      0008ED FD               [12] 2790 	mov	r5,a
      0008EE A3               [24] 2791 	inc	dptr
      0008EF 12r00r00         [24] 2792 	lcall	__gptrget
      0008F2 FE               [12] 2793 	mov	r6,a
      0008F3 ED               [12] 2794 	mov	a,r5
      0008F4 4E               [12] 2795 	orl	a,r6
      0008F5 60 03            [24] 2796 	jz	00197$
      0008F7 02r0Ar16         [24] 2797 	ljmp	00115$
      0008FA                       2798 00197$:
      0008FA 90r00r4A         [24] 2799 	mov	dptr,#_osalTimerUpdate_srchTimer_1_131
      0008FD E0               [24] 2800 	movx	a,@dptr
      0008FE FD               [12] 2801 	mov	r5,a
      0008FF A3               [24] 2802 	inc	dptr
      000900 E0               [24] 2803 	movx	a,@dptr
      000901 FE               [12] 2804 	mov	r6,a
      000902 A3               [24] 2805 	inc	dptr
      000903 E0               [24] 2806 	movx	a,@dptr
      000904 FF               [12] 2807 	mov	r7,a
      000905 74 05            [12] 2808 	mov	a,#0x05
      000907 2D               [12] 2809 	add	a,r5
      000908 FD               [12] 2810 	mov	r5,a
      000909 74 00            [12] 2811 	mov	a,#0x00
      00090B 3E               [12] 2812 	addc	a,r6
      00090C FE               [12] 2813 	mov	r6,a
      00090D 8D 82            [24] 2814 	mov	dpl,r5
      00090F 8E 83            [24] 2815 	mov	dph,r6
      000911 8F F0            [24] 2816 	mov	b,r7
      000913 12r00r00         [24] 2817 	lcall	__gptrget
      000916 FD               [12] 2818 	mov	r5,a
      000917 A3               [24] 2819 	inc	dptr
      000918 12r00r00         [24] 2820 	lcall	__gptrget
      00091B FE               [12] 2821 	mov	r6,a
      00091C ED               [12] 2822 	mov	a,r5
      00091D 4E               [12] 2823 	orl	a,r6
      00091E 60 03            [24] 2824 	jz	00198$
      000920 02r0Ar16         [24] 2825 	ljmp	00115$
      000923                       2826 00198$:
                                   2827 ;	../osal/common/OSAL_Timers.c:537: (srchTimer->reloadTimeout) && (srchTimer->event_flag) )
      000923 90r00r4A         [24] 2828 	mov	dptr,#_osalTimerUpdate_srchTimer_1_131
      000926 E0               [24] 2829 	movx	a,@dptr
      000927 FD               [12] 2830 	mov	r5,a
      000928 A3               [24] 2831 	inc	dptr
      000929 E0               [24] 2832 	movx	a,@dptr
      00092A FE               [12] 2833 	mov	r6,a
      00092B A3               [24] 2834 	inc	dptr
      00092C E0               [24] 2835 	movx	a,@dptr
      00092D FF               [12] 2836 	mov	r7,a
      00092E 74 0A            [12] 2837 	mov	a,#0x0A
      000930 2D               [12] 2838 	add	a,r5
      000931 FD               [12] 2839 	mov	r5,a
      000932 74 00            [12] 2840 	mov	a,#0x00
      000934 3E               [12] 2841 	addc	a,r6
      000935 FE               [12] 2842 	mov	r6,a
      000936 8D 82            [24] 2843 	mov	dpl,r5
      000938 8E 83            [24] 2844 	mov	dph,r6
      00093A 8F F0            [24] 2845 	mov	b,r7
      00093C 12r00r00         [24] 2846 	lcall	__gptrget
      00093F FD               [12] 2847 	mov	r5,a
      000940 A3               [24] 2848 	inc	dptr
      000941 12r00r00         [24] 2849 	lcall	__gptrget
      000944 FE               [12] 2850 	mov	r6,a
      000945 A3               [24] 2851 	inc	dptr
      000946 12r00r00         [24] 2852 	lcall	__gptrget
      000949 FF               [12] 2853 	mov	r7,a
      00094A A3               [24] 2854 	inc	dptr
      00094B 12r00r00         [24] 2855 	lcall	__gptrget
      00094E FC               [12] 2856 	mov	r4,a
      00094F ED               [12] 2857 	mov	a,r5
      000950 4E               [12] 2858 	orl	a,r6
      000951 4F               [12] 2859 	orl	a,r7
      000952 4C               [12] 2860 	orl	a,r4
      000953 70 03            [24] 2861 	jnz	00199$
      000955 02r0Ar16         [24] 2862 	ljmp	00115$
      000958                       2863 00199$:
      000958 90r00r4A         [24] 2864 	mov	dptr,#_osalTimerUpdate_srchTimer_1_131
      00095B E0               [24] 2865 	movx	a,@dptr
      00095C FD               [12] 2866 	mov	r5,a
      00095D A3               [24] 2867 	inc	dptr
      00095E E0               [24] 2868 	movx	a,@dptr
      00095F FE               [12] 2869 	mov	r6,a
      000960 A3               [24] 2870 	inc	dptr
      000961 E0               [24] 2871 	movx	a,@dptr
      000962 FF               [12] 2872 	mov	r7,a
      000963 74 07            [12] 2873 	mov	a,#0x07
      000965 2D               [12] 2874 	add	a,r5
      000966 FD               [12] 2875 	mov	r5,a
      000967 74 00            [12] 2876 	mov	a,#0x00
      000969 3E               [12] 2877 	addc	a,r6
      00096A FE               [12] 2878 	mov	r6,a
      00096B 8D 82            [24] 2879 	mov	dpl,r5
      00096D 8E 83            [24] 2880 	mov	dph,r6
      00096F 8F F0            [24] 2881 	mov	b,r7
      000971 12r00r00         [24] 2882 	lcall	__gptrget
      000974 FD               [12] 2883 	mov	r5,a
      000975 A3               [24] 2884 	inc	dptr
      000976 12r00r00         [24] 2885 	lcall	__gptrget
      000979 FE               [12] 2886 	mov	r6,a
      00097A ED               [12] 2887 	mov	a,r5
      00097B 4E               [12] 2888 	orl	a,r6
      00097C 70 03            [24] 2889 	jnz	00200$
      00097E 02r0Ar16         [24] 2890 	ljmp	00115$
      000981                       2891 00200$:
                                   2892 ;	../osal/common/OSAL_Timers.c:542: osal_set_event( srchTimer->task_id, srchTimer->event_flag );
      000981 90r00r4A         [24] 2893 	mov	dptr,#_osalTimerUpdate_srchTimer_1_131
      000984 E0               [24] 2894 	movx	a,@dptr
      000985 FD               [12] 2895 	mov	r5,a
      000986 A3               [24] 2896 	inc	dptr
      000987 E0               [24] 2897 	movx	a,@dptr
      000988 FE               [12] 2898 	mov	r6,a
      000989 A3               [24] 2899 	inc	dptr
      00098A E0               [24] 2900 	movx	a,@dptr
      00098B FF               [12] 2901 	mov	r7,a
      00098C 74 09            [12] 2902 	mov	a,#0x09
      00098E 2D               [12] 2903 	add	a,r5
      00098F FA               [12] 2904 	mov	r2,a
      000990 74 00            [12] 2905 	mov	a,#0x00
      000992 3E               [12] 2906 	addc	a,r6
      000993 FB               [12] 2907 	mov	r3,a
      000994 8F 04            [24] 2908 	mov	ar4,r7
      000996 8A 82            [24] 2909 	mov	dpl,r2
      000998 8B 83            [24] 2910 	mov	dph,r3
      00099A 8C F0            [24] 2911 	mov	b,r4
      00099C 12r00r00         [24] 2912 	lcall	__gptrget
      00099F FA               [12] 2913 	mov	r2,a
      0009A0 74 07            [12] 2914 	mov	a,#0x07
      0009A2 2D               [12] 2915 	add	a,r5
      0009A3 F9               [12] 2916 	mov	r1,a
      0009A4 74 00            [12] 2917 	mov	a,#0x00
      0009A6 3E               [12] 2918 	addc	a,r6
      0009A7 FB               [12] 2919 	mov	r3,a
      0009A8 8F 04            [24] 2920 	mov	ar4,r7
      0009AA 89 82            [24] 2921 	mov	dpl,r1
      0009AC 8B 83            [24] 2922 	mov	dph,r3
      0009AE 8C F0            [24] 2923 	mov	b,r4
      0009B0 12r00r00         [24] 2924 	lcall	__gptrget
      0009B3 F9               [12] 2925 	mov	r1,a
      0009B4 A3               [24] 2926 	inc	dptr
      0009B5 12r00r00         [24] 2927 	lcall	__gptrget
      0009B8 FB               [12] 2928 	mov	r3,a
      0009B9 90r00r00         [24] 2929 	mov	dptr,#_osal_set_event_PARM_2
      0009BC E9               [12] 2930 	mov	a,r1
      0009BD F0               [24] 2931 	movx	@dptr,a
      0009BE EB               [12] 2932 	mov	a,r3
      0009BF A3               [24] 2933 	inc	dptr
      0009C0 F0               [24] 2934 	movx	@dptr,a
      0009C1 8A 82            [24] 2935 	mov	dpl,r2
      0009C3 C0 07            [24] 2936 	push	ar7
      0009C5 C0 06            [24] 2937 	push	ar6
      0009C7 C0 05            [24] 2938 	push	ar5
      0009C9 12r00r00         [24] 2939 	lcall	_osal_set_event
      0009CC D0 05            [24] 2940 	pop	ar5
      0009CE D0 06            [24] 2941 	pop	ar6
      0009D0 D0 07            [24] 2942 	pop	ar7
                                   2943 ;	../osal/common/OSAL_Timers.c:545: srchTimer->timeout.time32 = srchTimer->reloadTimeout;
      0009D2 74 03            [12] 2944 	mov	a,#0x03
      0009D4 2D               [12] 2945 	add	a,r5
      0009D5 FA               [12] 2946 	mov	r2,a
      0009D6 74 00            [12] 2947 	mov	a,#0x00
      0009D8 3E               [12] 2948 	addc	a,r6
      0009D9 FB               [12] 2949 	mov	r3,a
      0009DA 8F 04            [24] 2950 	mov	ar4,r7
      0009DC 74 0A            [12] 2951 	mov	a,#0x0A
      0009DE 2D               [12] 2952 	add	a,r5
      0009DF FD               [12] 2953 	mov	r5,a
      0009E0 74 00            [12] 2954 	mov	a,#0x00
      0009E2 3E               [12] 2955 	addc	a,r6
      0009E3 FE               [12] 2956 	mov	r6,a
      0009E4 8D 82            [24] 2957 	mov	dpl,r5
      0009E6 8E 83            [24] 2958 	mov	dph,r6
      0009E8 8F F0            [24] 2959 	mov	b,r7
      0009EA 12r00r00         [24] 2960 	lcall	__gptrget
      0009ED F9               [12] 2961 	mov	r1,a
      0009EE A3               [24] 2962 	inc	dptr
      0009EF 12r00r00         [24] 2963 	lcall	__gptrget
      0009F2 FD               [12] 2964 	mov	r5,a
      0009F3 A3               [24] 2965 	inc	dptr
      0009F4 12r00r00         [24] 2966 	lcall	__gptrget
      0009F7 FE               [12] 2967 	mov	r6,a
      0009F8 A3               [24] 2968 	inc	dptr
      0009F9 12r00r00         [24] 2969 	lcall	__gptrget
      0009FC FF               [12] 2970 	mov	r7,a
      0009FD 8A 82            [24] 2971 	mov	dpl,r2
      0009FF 8B 83            [24] 2972 	mov	dph,r3
      000A01 8C F0            [24] 2973 	mov	b,r4
      000A03 E9               [12] 2974 	mov	a,r1
      000A04 12r00r00         [24] 2975 	lcall	__gptrput
      000A07 A3               [24] 2976 	inc	dptr
      000A08 ED               [12] 2977 	mov	a,r5
      000A09 12r00r00         [24] 2978 	lcall	__gptrput
      000A0C A3               [24] 2979 	inc	dptr
      000A0D EE               [12] 2980 	mov	a,r6
      000A0E 12r00r00         [24] 2981 	lcall	__gptrput
      000A11 A3               [24] 2982 	inc	dptr
      000A12 EF               [12] 2983 	mov	a,r7
      000A13 12r00r00         [24] 2984 	lcall	__gptrput
      000A16                       2985 00115$:
                                   2986 ;	../osal/common/OSAL_Timers.c:549: if ( ((srchTimer->timeout.time16[0] == 0) && (srchTimer->timeout.time16[1] == 0)) ||
      000A16 90r00r4A         [24] 2987 	mov	dptr,#_osalTimerUpdate_srchTimer_1_131
      000A19 E0               [24] 2988 	movx	a,@dptr
      000A1A FD               [12] 2989 	mov	r5,a
      000A1B A3               [24] 2990 	inc	dptr
      000A1C E0               [24] 2991 	movx	a,@dptr
      000A1D FE               [12] 2992 	mov	r6,a
      000A1E A3               [24] 2993 	inc	dptr
      000A1F E0               [24] 2994 	movx	a,@dptr
      000A20 FF               [12] 2995 	mov	r7,a
      000A21 74 03            [12] 2996 	mov	a,#0x03
      000A23 2D               [12] 2997 	add	a,r5
      000A24 FD               [12] 2998 	mov	r5,a
      000A25 74 00            [12] 2999 	mov	a,#0x00
      000A27 3E               [12] 3000 	addc	a,r6
      000A28 FE               [12] 3001 	mov	r6,a
      000A29 8D 82            [24] 3002 	mov	dpl,r5
      000A2B 8E 83            [24] 3003 	mov	dph,r6
      000A2D 8F F0            [24] 3004 	mov	b,r7
      000A2F 12r00r00         [24] 3005 	lcall	__gptrget
      000A32 FD               [12] 3006 	mov	r5,a
      000A33 A3               [24] 3007 	inc	dptr
      000A34 12r00r00         [24] 3008 	lcall	__gptrget
      000A37 FE               [12] 3009 	mov	r6,a
      000A38 ED               [12] 3010 	mov	a,r5
      000A39 4E               [12] 3011 	orl	a,r6
      000A3A 60 03            [24] 3012 	jz	00201$
      000A3C 02r0Ar68         [24] 3013 	ljmp	00126$
      000A3F                       3014 00201$:
      000A3F 90r00r4A         [24] 3015 	mov	dptr,#_osalTimerUpdate_srchTimer_1_131
      000A42 E0               [24] 3016 	movx	a,@dptr
      000A43 FD               [12] 3017 	mov	r5,a
      000A44 A3               [24] 3018 	inc	dptr
      000A45 E0               [24] 3019 	movx	a,@dptr
      000A46 FE               [12] 3020 	mov	r6,a
      000A47 A3               [24] 3021 	inc	dptr
      000A48 E0               [24] 3022 	movx	a,@dptr
      000A49 FF               [12] 3023 	mov	r7,a
      000A4A 74 05            [12] 3024 	mov	a,#0x05
      000A4C 2D               [12] 3025 	add	a,r5
      000A4D FD               [12] 3026 	mov	r5,a
      000A4E 74 00            [12] 3027 	mov	a,#0x00
      000A50 3E               [12] 3028 	addc	a,r6
      000A51 FE               [12] 3029 	mov	r6,a
      000A52 8D 82            [24] 3030 	mov	dpl,r5
      000A54 8E 83            [24] 3031 	mov	dph,r6
      000A56 8F F0            [24] 3032 	mov	b,r7
      000A58 12r00r00         [24] 3033 	lcall	__gptrget
      000A5B FD               [12] 3034 	mov	r5,a
      000A5C A3               [24] 3035 	inc	dptr
      000A5D 12r00r00         [24] 3036 	lcall	__gptrget
      000A60 FE               [12] 3037 	mov	r6,a
      000A61 ED               [12] 3038 	mov	a,r5
      000A62 4E               [12] 3039 	orl	a,r6
      000A63 70 03            [24] 3040 	jnz	00202$
      000A65 02r0Ar91         [24] 3041 	ljmp	00122$
      000A68                       3042 00202$:
      000A68                       3043 00126$:
                                   3044 ;	../osal/common/OSAL_Timers.c:550: (srchTimer->event_flag == 0) )
      000A68 90r00r4A         [24] 3045 	mov	dptr,#_osalTimerUpdate_srchTimer_1_131
      000A6B E0               [24] 3046 	movx	a,@dptr
      000A6C FD               [12] 3047 	mov	r5,a
      000A6D A3               [24] 3048 	inc	dptr
      000A6E E0               [24] 3049 	movx	a,@dptr
      000A6F FE               [12] 3050 	mov	r6,a
      000A70 A3               [24] 3051 	inc	dptr
      000A71 E0               [24] 3052 	movx	a,@dptr
      000A72 FF               [12] 3053 	mov	r7,a
      000A73 74 07            [12] 3054 	mov	a,#0x07
      000A75 2D               [12] 3055 	add	a,r5
      000A76 FD               [12] 3056 	mov	r5,a
      000A77 74 00            [12] 3057 	mov	a,#0x00
      000A79 3E               [12] 3058 	addc	a,r6
      000A7A FE               [12] 3059 	mov	r6,a
      000A7B 8D 82            [24] 3060 	mov	dpl,r5
      000A7D 8E 83            [24] 3061 	mov	dph,r6
      000A7F 8F F0            [24] 3062 	mov	b,r7
      000A81 12r00r00         [24] 3063 	lcall	__gptrget
      000A84 FD               [12] 3064 	mov	r5,a
      000A85 A3               [24] 3065 	inc	dptr
      000A86 12r00r00         [24] 3066 	lcall	__gptrget
      000A89 FE               [12] 3067 	mov	r6,a
      000A8A ED               [12] 3068 	mov	a,r5
      000A8B 4E               [12] 3069 	orl	a,r6
      000A8C 60 03            [24] 3070 	jz	00203$
      000A8E 02r0Br46         [24] 3071 	ljmp	00123$
      000A91                       3072 00203$:
      000A91                       3073 00122$:
                                   3074 ;	../osal/common/OSAL_Timers.c:561: if ( prevTimer == NULL )
      000A91 90r00r4D         [24] 3075 	mov	dptr,#_osalTimerUpdate_prevTimer_1_131
      000A94 E0               [24] 3076 	movx	a,@dptr
      000A95 FD               [12] 3077 	mov	r5,a
      000A96 A3               [24] 3078 	inc	dptr
      000A97 E0               [24] 3079 	movx	a,@dptr
      000A98 FE               [12] 3080 	mov	r6,a
      000A99 A3               [24] 3081 	inc	dptr
      000A9A E0               [24] 3082 	movx	a,@dptr
      000A9B FF               [12] 3083 	mov	r7,a
      000A9C ED               [12] 3084 	mov	a,r5
      000A9D 4E               [12] 3085 	orl	a,r6
      000A9E 60 03            [24] 3086 	jz	00204$
      000AA0 02r0ArD0         [24] 3087 	ljmp	00120$
      000AA3                       3088 00204$:
                                   3089 ;	../osal/common/OSAL_Timers.c:563: timerHead = srchTimer->next;
      000AA3 90r00r4A         [24] 3090 	mov	dptr,#_osalTimerUpdate_srchTimer_1_131
      000AA6 E0               [24] 3091 	movx	a,@dptr
      000AA7 FD               [12] 3092 	mov	r5,a
      000AA8 A3               [24] 3093 	inc	dptr
      000AA9 E0               [24] 3094 	movx	a,@dptr
      000AAA FE               [12] 3095 	mov	r6,a
      000AAB A3               [24] 3096 	inc	dptr
      000AAC E0               [24] 3097 	movx	a,@dptr
      000AAD FF               [12] 3098 	mov	r7,a
      000AAE 8D 82            [24] 3099 	mov	dpl,r5
      000AB0 8E 83            [24] 3100 	mov	dph,r6
      000AB2 8F F0            [24] 3101 	mov	b,r7
      000AB4 12r00r00         [24] 3102 	lcall	__gptrget
      000AB7 FD               [12] 3103 	mov	r5,a
      000AB8 A3               [24] 3104 	inc	dptr
      000AB9 12r00r00         [24] 3105 	lcall	__gptrget
      000ABC FE               [12] 3106 	mov	r6,a
      000ABD A3               [24] 3107 	inc	dptr
      000ABE 12r00r00         [24] 3108 	lcall	__gptrget
      000AC1 FF               [12] 3109 	mov	r7,a
      000AC2 90r00r00         [24] 3110 	mov	dptr,#_timerHead
      000AC5 ED               [12] 3111 	mov	a,r5
      000AC6 F0               [24] 3112 	movx	@dptr,a
      000AC7 EE               [12] 3113 	mov	a,r6
      000AC8 A3               [24] 3114 	inc	dptr
      000AC9 F0               [24] 3115 	movx	@dptr,a
      000ACA EF               [12] 3116 	mov	a,r7
      000ACB A3               [24] 3117 	inc	dptr
      000ACC F0               [24] 3118 	movx	@dptr,a
      000ACD 02r0Br0E         [24] 3119 	ljmp	00121$
      000AD0                       3120 00120$:
                                   3121 ;	../osal/common/OSAL_Timers.c:568: prevTimer->next = srchTimer->next;
      000AD0 90r00r4D         [24] 3122 	mov	dptr,#_osalTimerUpdate_prevTimer_1_131
      000AD3 E0               [24] 3123 	movx	a,@dptr
      000AD4 FD               [12] 3124 	mov	r5,a
      000AD5 A3               [24] 3125 	inc	dptr
      000AD6 E0               [24] 3126 	movx	a,@dptr
      000AD7 FE               [12] 3127 	mov	r6,a
      000AD8 A3               [24] 3128 	inc	dptr
      000AD9 E0               [24] 3129 	movx	a,@dptr
      000ADA FF               [12] 3130 	mov	r7,a
      000ADB 90r00r4A         [24] 3131 	mov	dptr,#_osalTimerUpdate_srchTimer_1_131
      000ADE E0               [24] 3132 	movx	a,@dptr
      000ADF FA               [12] 3133 	mov	r2,a
      000AE0 A3               [24] 3134 	inc	dptr
      000AE1 E0               [24] 3135 	movx	a,@dptr
      000AE2 FB               [12] 3136 	mov	r3,a
      000AE3 A3               [24] 3137 	inc	dptr
      000AE4 E0               [24] 3138 	movx	a,@dptr
      000AE5 FC               [12] 3139 	mov	r4,a
      000AE6 8A 82            [24] 3140 	mov	dpl,r2
      000AE8 8B 83            [24] 3141 	mov	dph,r3
      000AEA 8C F0            [24] 3142 	mov	b,r4
      000AEC 12r00r00         [24] 3143 	lcall	__gptrget
      000AEF FA               [12] 3144 	mov	r2,a
      000AF0 A3               [24] 3145 	inc	dptr
      000AF1 12r00r00         [24] 3146 	lcall	__gptrget
      000AF4 FB               [12] 3147 	mov	r3,a
      000AF5 A3               [24] 3148 	inc	dptr
      000AF6 12r00r00         [24] 3149 	lcall	__gptrget
      000AF9 FC               [12] 3150 	mov	r4,a
      000AFA 8D 82            [24] 3151 	mov	dpl,r5
      000AFC 8E 83            [24] 3152 	mov	dph,r6
      000AFE 8F F0            [24] 3153 	mov	b,r7
      000B00 EA               [12] 3154 	mov	a,r2
      000B01 12r00r00         [24] 3155 	lcall	__gptrput
      000B04 A3               [24] 3156 	inc	dptr
      000B05 EB               [12] 3157 	mov	a,r3
      000B06 12r00r00         [24] 3158 	lcall	__gptrput
      000B09 A3               [24] 3159 	inc	dptr
      000B0A EC               [12] 3160 	mov	a,r4
      000B0B 12r00r00         [24] 3161 	lcall	__gptrput
      000B0E                       3162 00121$:
                                   3163 ;	../osal/common/OSAL_Timers.c:572: freeTimer = srchTimer;
      000B0E 90r00r4A         [24] 3164 	mov	dptr,#_osalTimerUpdate_srchTimer_1_131
      000B11 E0               [24] 3165 	movx	a,@dptr
      000B12 FD               [12] 3166 	mov	r5,a
      000B13 A3               [24] 3167 	inc	dptr
      000B14 E0               [24] 3168 	movx	a,@dptr
      000B15 FE               [12] 3169 	mov	r6,a
      000B16 A3               [24] 3170 	inc	dptr
      000B17 E0               [24] 3171 	movx	a,@dptr
      000B18 FF               [12] 3172 	mov	r7,a
      000B19 90r00r54         [24] 3173 	mov	dptr,#_osalTimerUpdate_freeTimer_3_133
      000B1C ED               [12] 3174 	mov	a,r5
      000B1D F0               [24] 3175 	movx	@dptr,a
      000B1E EE               [12] 3176 	mov	a,r6
      000B1F A3               [24] 3177 	inc	dptr
      000B20 F0               [24] 3178 	movx	@dptr,a
      000B21 EF               [12] 3179 	mov	a,r7
      000B22 A3               [24] 3180 	inc	dptr
      000B23 F0               [24] 3181 	movx	@dptr,a
                                   3182 ;	../osal/common/OSAL_Timers.c:575: srchTimer = srchTimer->next;
      000B24 8D 82            [24] 3183 	mov	dpl,r5
      000B26 8E 83            [24] 3184 	mov	dph,r6
      000B28 8F F0            [24] 3185 	mov	b,r7
      000B2A 12r00r00         [24] 3186 	lcall	__gptrget
      000B2D FD               [12] 3187 	mov	r5,a
      000B2E A3               [24] 3188 	inc	dptr
      000B2F 12r00r00         [24] 3189 	lcall	__gptrget
      000B32 FE               [12] 3190 	mov	r6,a
      000B33 A3               [24] 3191 	inc	dptr
      000B34 12r00r00         [24] 3192 	lcall	__gptrget
      000B37 FF               [12] 3193 	mov	r7,a
      000B38 90r00r4A         [24] 3194 	mov	dptr,#_osalTimerUpdate_srchTimer_1_131
      000B3B ED               [12] 3195 	mov	a,r5
      000B3C F0               [24] 3196 	movx	@dptr,a
      000B3D EE               [12] 3197 	mov	a,r6
      000B3E A3               [24] 3198 	inc	dptr
      000B3F F0               [24] 3199 	movx	@dptr,a
      000B40 EF               [12] 3200 	mov	a,r7
      000B41 A3               [24] 3201 	inc	dptr
      000B42 F0               [24] 3202 	movx	@dptr,a
      000B43 02r0Br7B         [24] 3203 	ljmp	00124$
      000B46                       3204 00123$:
                                   3205 ;	../osal/common/OSAL_Timers.c:580: prevTimer = srchTimer;
      000B46 90r00r4A         [24] 3206 	mov	dptr,#_osalTimerUpdate_srchTimer_1_131
      000B49 E0               [24] 3207 	movx	a,@dptr
      000B4A FD               [12] 3208 	mov	r5,a
      000B4B A3               [24] 3209 	inc	dptr
      000B4C E0               [24] 3210 	movx	a,@dptr
      000B4D FE               [12] 3211 	mov	r6,a
      000B4E A3               [24] 3212 	inc	dptr
      000B4F E0               [24] 3213 	movx	a,@dptr
      000B50 FF               [12] 3214 	mov	r7,a
      000B51 90r00r4D         [24] 3215 	mov	dptr,#_osalTimerUpdate_prevTimer_1_131
      000B54 ED               [12] 3216 	mov	a,r5
      000B55 F0               [24] 3217 	movx	@dptr,a
      000B56 EE               [12] 3218 	mov	a,r6
      000B57 A3               [24] 3219 	inc	dptr
      000B58 F0               [24] 3220 	movx	@dptr,a
      000B59 EF               [12] 3221 	mov	a,r7
      000B5A A3               [24] 3222 	inc	dptr
      000B5B F0               [24] 3223 	movx	@dptr,a
                                   3224 ;	../osal/common/OSAL_Timers.c:581: srchTimer = srchTimer->next;
      000B5C 8D 82            [24] 3225 	mov	dpl,r5
      000B5E 8E 83            [24] 3226 	mov	dph,r6
      000B60 8F F0            [24] 3227 	mov	b,r7
      000B62 12r00r00         [24] 3228 	lcall	__gptrget
      000B65 FD               [12] 3229 	mov	r5,a
      000B66 A3               [24] 3230 	inc	dptr
      000B67 12r00r00         [24] 3231 	lcall	__gptrget
      000B6A FE               [12] 3232 	mov	r6,a
      000B6B A3               [24] 3233 	inc	dptr
      000B6C 12r00r00         [24] 3234 	lcall	__gptrget
      000B6F FF               [12] 3235 	mov	r7,a
      000B70 90r00r4A         [24] 3236 	mov	dptr,#_osalTimerUpdate_srchTimer_1_131
      000B73 ED               [12] 3237 	mov	a,r5
      000B74 F0               [24] 3238 	movx	@dptr,a
      000B75 EE               [12] 3239 	mov	a,r6
      000B76 A3               [24] 3240 	inc	dptr
      000B77 F0               [24] 3241 	movx	@dptr,a
      000B78 EF               [12] 3242 	mov	a,r7
      000B79 A3               [24] 3243 	inc	dptr
      000B7A F0               [24] 3244 	movx	@dptr,a
      000B7B                       3245 00124$:
                                   3246 ;	../osal/common/OSAL_Timers.c:586: if ( freeTimer )
      000B7B 90r00r54         [24] 3247 	mov	dptr,#_osalTimerUpdate_freeTimer_3_133
      000B7E E0               [24] 3248 	movx	a,@dptr
      000B7F FD               [12] 3249 	mov	r5,a
      000B80 A3               [24] 3250 	inc	dptr
      000B81 E0               [24] 3251 	movx	a,@dptr
      000B82 FE               [12] 3252 	mov	r6,a
      000B83 A3               [24] 3253 	inc	dptr
      000B84 E0               [24] 3254 	movx	a,@dptr
      000B85 FF               [12] 3255 	mov	r7,a
      000B86 ED               [12] 3256 	mov	a,r5
      000B87 4E               [12] 3257 	orl	a,r6
      000B88 70 03            [24] 3258 	jnz	00205$
      000B8A 02r06r83         [24] 3259 	ljmp	00132$
      000B8D                       3260 00205$:
                                   3261 ;	../osal/common/OSAL_Timers.c:590: if ( (freeTimer->timeout.time16[0] == 0) && (freeTimer->timeout.time16[1] == 0) )
      000B8D 90r00r54         [24] 3262 	mov	dptr,#_osalTimerUpdate_freeTimer_3_133
      000B90 E0               [24] 3263 	movx	a,@dptr
      000B91 FD               [12] 3264 	mov	r5,a
      000B92 A3               [24] 3265 	inc	dptr
      000B93 E0               [24] 3266 	movx	a,@dptr
      000B94 FE               [12] 3267 	mov	r6,a
      000B95 A3               [24] 3268 	inc	dptr
      000B96 E0               [24] 3269 	movx	a,@dptr
      000B97 FF               [12] 3270 	mov	r7,a
      000B98 74 03            [12] 3271 	mov	a,#0x03
      000B9A 2D               [12] 3272 	add	a,r5
      000B9B FD               [12] 3273 	mov	r5,a
      000B9C 74 00            [12] 3274 	mov	a,#0x00
      000B9E 3E               [12] 3275 	addc	a,r6
      000B9F FE               [12] 3276 	mov	r6,a
      000BA0 8D 82            [24] 3277 	mov	dpl,r5
      000BA2 8E 83            [24] 3278 	mov	dph,r6
      000BA4 8F F0            [24] 3279 	mov	b,r7
      000BA6 12r00r00         [24] 3280 	lcall	__gptrget
      000BA9 FD               [12] 3281 	mov	r5,a
      000BAA A3               [24] 3282 	inc	dptr
      000BAB 12r00r00         [24] 3283 	lcall	__gptrget
      000BAE FE               [12] 3284 	mov	r6,a
      000BAF ED               [12] 3285 	mov	a,r5
      000BB0 4E               [12] 3286 	orl	a,r6
      000BB1 60 03            [24] 3287 	jz	00206$
      000BB3 02r0Cr22         [24] 3288 	ljmp	00128$
      000BB6                       3289 00206$:
      000BB6 90r00r54         [24] 3290 	mov	dptr,#_osalTimerUpdate_freeTimer_3_133
      000BB9 E0               [24] 3291 	movx	a,@dptr
      000BBA FD               [12] 3292 	mov	r5,a
      000BBB A3               [24] 3293 	inc	dptr
      000BBC E0               [24] 3294 	movx	a,@dptr
      000BBD FE               [12] 3295 	mov	r6,a
      000BBE A3               [24] 3296 	inc	dptr
      000BBF E0               [24] 3297 	movx	a,@dptr
      000BC0 FF               [12] 3298 	mov	r7,a
      000BC1 74 05            [12] 3299 	mov	a,#0x05
      000BC3 2D               [12] 3300 	add	a,r5
      000BC4 FD               [12] 3301 	mov	r5,a
      000BC5 74 00            [12] 3302 	mov	a,#0x00
      000BC7 3E               [12] 3303 	addc	a,r6
      000BC8 FE               [12] 3304 	mov	r6,a
      000BC9 8D 82            [24] 3305 	mov	dpl,r5
      000BCB 8E 83            [24] 3306 	mov	dph,r6
      000BCD 8F F0            [24] 3307 	mov	b,r7
      000BCF 12r00r00         [24] 3308 	lcall	__gptrget
      000BD2 FD               [12] 3309 	mov	r5,a
      000BD3 A3               [24] 3310 	inc	dptr
      000BD4 12r00r00         [24] 3311 	lcall	__gptrget
      000BD7 FE               [12] 3312 	mov	r6,a
      000BD8 ED               [12] 3313 	mov	a,r5
      000BD9 4E               [12] 3314 	orl	a,r6
      000BDA 60 03            [24] 3315 	jz	00207$
      000BDC 02r0Cr22         [24] 3316 	ljmp	00128$
      000BDF                       3317 00207$:
                                   3318 ;	../osal/common/OSAL_Timers.c:602: osal_set_event( freeTimer->task_id, freeTimer->event_flag );
      000BDF 90r00r54         [24] 3319 	mov	dptr,#_osalTimerUpdate_freeTimer_3_133
      000BE2 E0               [24] 3320 	movx	a,@dptr
      000BE3 FD               [12] 3321 	mov	r5,a
      000BE4 A3               [24] 3322 	inc	dptr
      000BE5 E0               [24] 3323 	movx	a,@dptr
      000BE6 FE               [12] 3324 	mov	r6,a
      000BE7 A3               [24] 3325 	inc	dptr
      000BE8 E0               [24] 3326 	movx	a,@dptr
      000BE9 FF               [12] 3327 	mov	r7,a
      000BEA 74 09            [12] 3328 	mov	a,#0x09
      000BEC 2D               [12] 3329 	add	a,r5
      000BED FA               [12] 3330 	mov	r2,a
      000BEE 74 00            [12] 3331 	mov	a,#0x00
      000BF0 3E               [12] 3332 	addc	a,r6
      000BF1 FB               [12] 3333 	mov	r3,a
      000BF2 8F 04            [24] 3334 	mov	ar4,r7
      000BF4 8A 82            [24] 3335 	mov	dpl,r2
      000BF6 8B 83            [24] 3336 	mov	dph,r3
      000BF8 8C F0            [24] 3337 	mov	b,r4
      000BFA 12r00r00         [24] 3338 	lcall	__gptrget
      000BFD FA               [12] 3339 	mov	r2,a
      000BFE 74 07            [12] 3340 	mov	a,#0x07
      000C00 2D               [12] 3341 	add	a,r5
      000C01 FD               [12] 3342 	mov	r5,a
      000C02 74 00            [12] 3343 	mov	a,#0x00
      000C04 3E               [12] 3344 	addc	a,r6
      000C05 FE               [12] 3345 	mov	r6,a
      000C06 8D 82            [24] 3346 	mov	dpl,r5
      000C08 8E 83            [24] 3347 	mov	dph,r6
      000C0A 8F F0            [24] 3348 	mov	b,r7
      000C0C 12r00r00         [24] 3349 	lcall	__gptrget
      000C0F FD               [12] 3350 	mov	r5,a
      000C10 A3               [24] 3351 	inc	dptr
      000C11 12r00r00         [24] 3352 	lcall	__gptrget
      000C14 FE               [12] 3353 	mov	r6,a
      000C15 90r00r00         [24] 3354 	mov	dptr,#_osal_set_event_PARM_2
      000C18 ED               [12] 3355 	mov	a,r5
      000C19 F0               [24] 3356 	movx	@dptr,a
      000C1A EE               [12] 3357 	mov	a,r6
      000C1B A3               [24] 3358 	inc	dptr
      000C1C F0               [24] 3359 	movx	@dptr,a
      000C1D 8A 82            [24] 3360 	mov	dpl,r2
      000C1F 12r00r00         [24] 3361 	lcall	_osal_set_event
      000C22                       3362 00128$:
                                   3363 ;	../osal/common/OSAL_Timers.c:604: osal_mem_free( freeTimer );
      000C22 90r00r54         [24] 3364 	mov	dptr,#_osalTimerUpdate_freeTimer_3_133
      000C25 E0               [24] 3365 	movx	a,@dptr
      000C26 FD               [12] 3366 	mov	r5,a
      000C27 A3               [24] 3367 	inc	dptr
      000C28 E0               [24] 3368 	movx	a,@dptr
      000C29 FE               [12] 3369 	mov	r6,a
      000C2A A3               [24] 3370 	inc	dptr
      000C2B E0               [24] 3371 	movx	a,@dptr
      000C2C FF               [12] 3372 	mov	r7,a
      000C2D 8D 82            [24] 3373 	mov	dpl,r5
      000C2F 8E 83            [24] 3374 	mov	dph,r6
      000C31 8F F0            [24] 3375 	mov	b,r7
      000C33 12r00r00         [24] 3376 	lcall	_osal_mem_free
      000C36 02r06r83         [24] 3377 	ljmp	00132$
      000C39                       3378 00137$:
      000C39 22               [24] 3379 	ret
                                   3380 ;------------------------------------------------------------
                                   3381 ;Allocation info for local variables in function 'osal_GetSystemClock'
                                   3382 ;------------------------------------------------------------
                                   3383 ;	../osal/common/OSAL_Timers.c:689: uint32 osal_GetSystemClock( void )
                                   3384 ;	-----------------------------------------
                                   3385 ;	 function osal_GetSystemClock
                                   3386 ;	-----------------------------------------
      000C3A                       3387 _osal_GetSystemClock:
                                   3388 ;	../osal/common/OSAL_Timers.c:691: return ( osal_systemClock );
      000C3A 90r00r03         [24] 3389 	mov	dptr,#_osal_systemClock
      000C3D E0               [24] 3390 	movx	a,@dptr
      000C3E FC               [12] 3391 	mov	r4,a
      000C3F A3               [24] 3392 	inc	dptr
      000C40 E0               [24] 3393 	movx	a,@dptr
      000C41 FD               [12] 3394 	mov	r5,a
      000C42 A3               [24] 3395 	inc	dptr
      000C43 E0               [24] 3396 	movx	a,@dptr
      000C44 FE               [12] 3397 	mov	r6,a
      000C45 A3               [24] 3398 	inc	dptr
      000C46 E0               [24] 3399 	movx	a,@dptr
      000C47 FF               [12] 3400 	mov	r7,a
      000C48 8C 82            [24] 3401 	mov	dpl,r4
      000C4A 8D 83            [24] 3402 	mov	dph,r5
      000C4C 8E F0            [24] 3403 	mov	b,r6
      000C4E EF               [12] 3404 	mov	a,r7
      000C4F                       3405 00101$:
      000C4F 22               [24] 3406 	ret
                                   3407 	.area CSEG    (CODE)
                                   3408 	.area CONST   (CODE)
                                   3409 	.area CABS    (ABS,CODE)
