                                      1 ;--------------------------------------------------------
                                      2 ; File Created by SDCC : free open source ANSI-C Compiler
                                      3 ; Version 3.4.0 #8981 (Apr  5 2014) (Mac OS X i386)
                                      4 ; This file was generated Mon Jun 29 17:16:57 2015
                                      5 ;--------------------------------------------------------
                                      6 	.module gattservapp
                                      7 	.optsdcc -mmcs51 --model-large
                                      8 	
                                      9 ;--------------------------------------------------------
                                     10 ; Public variables in this module
                                     11 ;--------------------------------------------------------
                                     12 	.globl _osal_set_event
                                     13 	.globl _osal_start_timerEx
                                     14 	.globl _MusicCtl
                                     15 	.globl _FlashLed
                                     16 	.globl _ServNL
                                     17 	.globl _ServNH
                                     18 	.globl _BleFeedback
                                     19 	.globl _BleOpr
                                     20 	.globl _GATTServApp_RegisterService_PARM_3
                                     21 	.globl _GATTServApp_RegisterService_PARM_2
                                     22 	.globl _GATTServApp_Init
                                     23 	.globl _GATTServApp_ProcessEvent
                                     24 	.globl _GATTServApp_RegisterService
                                     25 ;--------------------------------------------------------
                                     26 ; special function registers
                                     27 ;--------------------------------------------------------
                                     28 	.area RSEG    (ABS,DATA)
      000000                         29 	.org 0x0000
                           0000AA    30 _BleOpr	=	0x00aa
                           00008E    31 _BleFeedback	=	0x008e
                           0000B0    32 _ServNH	=	0x00b0
                           0000B7    33 _ServNL	=	0x00b7
                           0000C0    34 _FlashLed	=	0x00c0
                           0000C2    35 _MusicCtl	=	0x00c2
                                     36 ;--------------------------------------------------------
                                     37 ; special function bits
                                     38 ;--------------------------------------------------------
                                     39 	.area RSEG    (ABS,DATA)
      000000                         40 	.org 0x0000
                                     41 ;--------------------------------------------------------
                                     42 ; overlayable register banks
                                     43 ;--------------------------------------------------------
                                     44 	.area REG_BANK_0	(REL,OVR,DATA)
      000000                         45 	.ds 8
                                     46 ;--------------------------------------------------------
                                     47 ; internal ram data
                                     48 ;--------------------------------------------------------
                                     49 	.area DSEG    (DATA)
      000000                         50 _performPeriodicTask_sloc0_1_0:
      000000                         51 	.ds 2
      000002                         52 _performPeriodicTask_sloc1_1_0:
      000002                         53 	.ds 2
      000004                         54 _performPeriodicTask_sloc2_1_0:
      000004                         55 	.ds 2
                                     56 ;--------------------------------------------------------
                                     57 ; overlayable items in internal ram 
                                     58 ;--------------------------------------------------------
                                     59 ;--------------------------------------------------------
                                     60 ; indirectly addressable internal ram data
                                     61 ;--------------------------------------------------------
                                     62 	.area ISEG    (DATA)
                                     63 ;--------------------------------------------------------
                                     64 ; absolute internal ram data
                                     65 ;--------------------------------------------------------
                                     66 	.area IABS    (ABS,DATA)
                                     67 	.area IABS    (ABS,DATA)
                                     68 ;--------------------------------------------------------
                                     69 ; bit data
                                     70 ;--------------------------------------------------------
                                     71 	.area BSEG    (BIT)
                                     72 ;--------------------------------------------------------
                                     73 ; paged external ram data
                                     74 ;--------------------------------------------------------
                                     75 	.area PSEG    (PAG,XDATA)
                                     76 ;--------------------------------------------------------
                                     77 ; external ram data
                                     78 ;--------------------------------------------------------
                                     79 	.area XSEG    (XDATA)
                           000000    80 _ServicesTable	=	0x0000
      000000                         81 _ServiceN:
      000000                         82 	.ds 2
                           000065    83 _connHandle	=	0x0065
                           000067    84 _uuidAddr	=	0x0067
                           000071    85 _pLen	=	0x0071
                           000072    86 _offset	=	0x0072
                           000074    87 _pValue	=	0x0074
      000002                         88 _TaskID:
      000002                         89 	.ds 1
      000003                         90 _GATTServApp_Init_taskId_1_218:
      000003                         91 	.ds 1
      000004                         92 _performPeriodicTask_ptr_1_225:
      000004                         93 	.ds 2
      000006                         94 _performPeriodicTask_pAttr_1_225:
      000006                         95 	.ds 3
      000009                         96 _performPeriodicTask_i_1_225:
      000009                         97 	.ds 1
      00000A                         98 _performPeriodicTask_j_1_225:
      00000A                         99 	.ds 1
      00000B                        100 _performPeriodicTask_found_1_225:
      00000B                        101 	.ds 1
      00000C                        102 _GATTServApp_RegisterService_PARM_2:
      00000C                        103 	.ds 2
      00000E                        104 _GATTServApp_RegisterService_PARM_3:
      00000E                        105 	.ds 3
      000011                        106 _GATTServApp_RegisterService_pAttrs_1_235:
      000011                        107 	.ds 3
      000014                        108 _GATTServApp_RegisterService_idx_1_236:
      000014                        109 	.ds 2
                                    110 ;--------------------------------------------------------
                                    111 ; absolute external ram data
                                    112 ;--------------------------------------------------------
                                    113 	.area XABS    (ABS,XDATA)
                                    114 ;--------------------------------------------------------
                                    115 ; external initialized ram data
                                    116 ;--------------------------------------------------------
                                    117 	.area HOME    (CODE)
                                    118 	.area GSINIT0 (CODE)
                                    119 	.area GSINIT1 (CODE)
                                    120 	.area GSINIT2 (CODE)
                                    121 	.area GSINIT3 (CODE)
                                    122 	.area GSINIT4 (CODE)
                                    123 	.area GSINIT5 (CODE)
                                    124 	.area GSINIT  (CODE)
                                    125 	.area GSFINAL (CODE)
                                    126 	.area CSEG    (CODE)
                                    127 ;--------------------------------------------------------
                                    128 ; global & static initialisations
                                    129 ;--------------------------------------------------------
                                    130 	.area HOME    (CODE)
                                    131 	.area GSINIT  (CODE)
                                    132 	.area GSFINAL (CODE)
                                    133 	.area GSINIT  (CODE)
                                    134 ;	../fake_ble_stack/ble/include/gattservapp.c:32: static int ServiceN=0;
      000000 90r00r00         [24]  135 	mov	dptr,#_ServiceN
      000003 74 00            [12]  136 	mov	a,#0x00
      000005 F0               [24]  137 	movx	@dptr,a
      000006 A3               [24]  138 	inc	dptr
      000007 F0               [24]  139 	movx	@dptr,a
                                    140 ;--------------------------------------------------------
                                    141 ; Home
                                    142 ;--------------------------------------------------------
                                    143 	.area HOME    (CODE)
                                    144 	.area HOME    (CODE)
                                    145 ;--------------------------------------------------------
                                    146 ; code
                                    147 ;--------------------------------------------------------
                                    148 	.area CSEG    (CODE)
                                    149 ;------------------------------------------------------------
                                    150 ;Allocation info for local variables in function 'GATTServApp_Init'
                                    151 ;------------------------------------------------------------
                                    152 ;taskId                    Allocated with name '_GATTServApp_Init_taskId_1_218'
                                    153 ;------------------------------------------------------------
                                    154 ;	../fake_ble_stack/ble/include/gattservapp.c:78: void GATTServApp_Init( uint8 taskId ){
                                    155 ;	-----------------------------------------
                                    156 ;	 function GATTServApp_Init
                                    157 ;	-----------------------------------------
      000000                        158 _GATTServApp_Init:
                           000007   159 	ar7 = 0x07
                           000006   160 	ar6 = 0x06
                           000005   161 	ar5 = 0x05
                           000004   162 	ar4 = 0x04
                           000003   163 	ar3 = 0x03
                           000002   164 	ar2 = 0x02
                           000001   165 	ar1 = 0x01
                           000000   166 	ar0 = 0x00
      000000 E5 82            [12]  167 	mov	a,dpl
      000002 90r00r03         [24]  168 	mov	dptr,#_GATTServApp_Init_taskId_1_218
      000005 F0               [24]  169 	movx	@dptr,a
                                    170 ;	../fake_ble_stack/ble/include/gattservapp.c:81: TaskID=taskId;
      000006 E0               [24]  171 	movx	a,@dptr
      000007 FF               [12]  172 	mov	r7,a
      000008 90r00r02         [24]  173 	mov	dptr,#_TaskID
      00000B EF               [12]  174 	mov	a,r7
      00000C F0               [24]  175 	movx	@dptr,a
                                    176 ;	../fake_ble_stack/ble/include/gattservapp.c:85: ServiceN=0;
      00000D 90r00r00         [24]  177 	mov	dptr,#_ServiceN
      000010 74 00            [12]  178 	mov	a,#0x00
      000012 F0               [24]  179 	movx	@dptr,a
      000013 A3               [24]  180 	inc	dptr
      000014 F0               [24]  181 	movx	@dptr,a
                                    182 ;	../fake_ble_stack/ble/include/gattservapp.c:88: osal_set_event( TaskID, periodic_event );
      000015 90r00r00         [24]  183 	mov	dptr,#_osal_set_event_PARM_2
      000018 04               [12]  184 	inc	a
      000019 F0               [24]  185 	movx	@dptr,a
      00001A 74 00            [12]  186 	mov	a,#0x00
      00001C A3               [24]  187 	inc	dptr
      00001D F0               [24]  188 	movx	@dptr,a
      00001E 8F 82            [24]  189 	mov	dpl,r7
      000020 12r00r00         [24]  190 	lcall	_osal_set_event
      000023                        191 00101$:
      000023 22               [24]  192 	ret
                                    193 ;------------------------------------------------------------
                                    194 ;Allocation info for local variables in function 'GATTServApp_ProcessEvent'
                                    195 ;------------------------------------------------------------
                                    196 ;events                    Allocated to stack - _bp -4
                                    197 ;taskId                    Allocated to registers 
                                    198 ;------------------------------------------------------------
                                    199 ;	../fake_ble_stack/ble/include/gattservapp.c:97: uint16 GATTServApp_ProcessEvent( uint8 taskId, uint16 events )__reentrant{
                                    200 ;	-----------------------------------------
                                    201 ;	 function GATTServApp_ProcessEvent
                                    202 ;	-----------------------------------------
      000024                        203 _GATTServApp_ProcessEvent:
      000024 C0*00            [24]  204 	push	_bp
      000026 85 81*00         [24]  205 	mov	_bp,sp
                                    206 ;	../fake_ble_stack/ble/include/gattservapp.c:100: if( events & periodic_event ){
      000029 E5*00            [12]  207 	mov	a,_bp
      00002B 24 FC            [12]  208 	add	a,#0xfc
      00002D F8               [12]  209 	mov	r0,a
      00002E E6               [12]  210 	mov	a,@r0
      00002F 20 E0 03         [24]  211 	jb	acc.0,00110$
      000032 02r00r6E         [24]  212 	ljmp	00104$
      000035                        213 00110$:
                                    214 ;	../fake_ble_stack/ble/include/gattservapp.c:109: __endasm;
      000035 C3               [12]  215 	clr c
                                    216 ;	../fake_ble_stack/ble/include/gattservapp.c:111: osal_start_timerEx( TaskID, periodic_event, PERIODIC_EVT_PERIOD );
      000036 90r00r02         [24]  217 	mov	dptr,#_TaskID
      000039 E0               [24]  218 	movx	a,@dptr
      00003A FF               [12]  219 	mov	r7,a
      00003B 90r00r00         [24]  220 	mov	dptr,#_osal_start_timerEx_PARM_2
      00003E 74 01            [12]  221 	mov	a,#0x01
      000040 F0               [24]  222 	movx	@dptr,a
      000041 74 00            [12]  223 	mov	a,#0x00
      000043 A3               [24]  224 	inc	dptr
      000044 F0               [24]  225 	movx	@dptr,a
      000045 90r00r00         [24]  226 	mov	dptr,#_osal_start_timerEx_PARM_3
      000048 74 64            [12]  227 	mov	a,#0x64
      00004A F0               [24]  228 	movx	@dptr,a
      00004B 74 00            [12]  229 	mov	a,#0x00
      00004D A3               [24]  230 	inc	dptr
      00004E F0               [24]  231 	movx	@dptr,a
      00004F A3               [24]  232 	inc	dptr
      000050 F0               [24]  233 	movx	@dptr,a
      000051 A3               [24]  234 	inc	dptr
      000052 F0               [24]  235 	movx	@dptr,a
      000053 8F 82            [24]  236 	mov	dpl,r7
      000055 12r00r00         [24]  237 	lcall	_osal_start_timerEx
                                    238 ;	../fake_ble_stack/ble/include/gattservapp.c:116: performPeriodicTask();
      000058 12r00r77         [24]  239 	lcall	_performPeriodicTask
                                    240 ;	../fake_ble_stack/ble/include/gattservapp.c:123: return( events ^ periodic_event);
      00005B E5*00            [12]  241 	mov	a,_bp
      00005D 24 FC            [12]  242 	add	a,#0xfc
      00005F F8               [12]  243 	mov	r0,a
      000060 74 01            [12]  244 	mov	a,#0x01
      000062 66               [12]  245 	xrl	a,@r0
      000063 FE               [12]  246 	mov	r6,a
      000064 08               [12]  247 	inc	r0
      000065 86 07            [24]  248 	mov	ar7,@r0
      000067 8E 82            [24]  249 	mov	dpl,r6
      000069 8F 83            [24]  250 	mov	dph,r7
      00006B 02r00r74         [24]  251 	ljmp	00105$
      00006E                        252 00104$:
                                    253 ;	../fake_ble_stack/ble/include/gattservapp.c:128: return 0;
      00006E 75 82 00         [24]  254 	mov	dpl,#0x00
      000071 75 83 00         [24]  255 	mov	dph,#0x00
      000074                        256 00105$:
      000074 D0*00            [24]  257 	pop	_bp
      000076 22               [24]  258 	ret
                                    259 ;------------------------------------------------------------
                                    260 ;Allocation info for local variables in function 'performPeriodicTask'
                                    261 ;------------------------------------------------------------
                                    262 ;sloc0                     Allocated with name '_performPeriodicTask_sloc0_1_0'
                                    263 ;sloc1                     Allocated with name '_performPeriodicTask_sloc1_1_0'
                                    264 ;sloc2                     Allocated with name '_performPeriodicTask_sloc2_1_0'
                                    265 ;TlbPtr                    Allocated with name '_performPeriodicTask_TlbPtr_1_225'
                                    266 ;ptr                       Allocated with name '_performPeriodicTask_ptr_1_225'
                                    267 ;pAttr                     Allocated with name '_performPeriodicTask_pAttr_1_225'
                                    268 ;sIdx                      Allocated with name '_performPeriodicTask_sIdx_1_225'
                                    269 ;i                         Allocated with name '_performPeriodicTask_i_1_225'
                                    270 ;j                         Allocated with name '_performPeriodicTask_j_1_225'
                                    271 ;found                     Allocated with name '_performPeriodicTask_found_1_225'
                                    272 ;------------------------------------------------------------
                                    273 ;	../fake_ble_stack/ble/include/gattservapp.c:135: static void performPeriodicTask( void ){
                                    274 ;	-----------------------------------------
                                    275 ;	 function performPeriodicTask
                                    276 ;	-----------------------------------------
      000077                        277 _performPeriodicTask:
                                    278 ;	../fake_ble_stack/ble/include/gattservapp.c:139: __code uint16* ptr=uuidAddr;
      000077 90 00 67         [24]  279 	mov	dptr,#_uuidAddr
      00007A E0               [24]  280 	movx	a,@dptr
      00007B FC               [12]  281 	mov	r4,a
      00007C A3               [24]  282 	inc	dptr
      00007D E0               [24]  283 	movx	a,@dptr
      00007E FD               [12]  284 	mov	r5,a
      00007F A3               [24]  285 	inc	dptr
      000080 E0               [24]  286 	movx	a,@dptr
      000081 FE               [12]  287 	mov	r6,a
      000082 A3               [24]  288 	inc	dptr
      000083 E0               [24]  289 	movx	a,@dptr
      000084 FF               [12]  290 	mov	r7,a
      000085 90r00r04         [24]  291 	mov	dptr,#_performPeriodicTask_ptr_1_225
      000088 EC               [12]  292 	mov	a,r4
      000089 F0               [24]  293 	movx	@dptr,a
      00008A ED               [12]  294 	mov	a,r5
      00008B A3               [24]  295 	inc	dptr
      00008C F0               [24]  296 	movx	@dptr,a
                                    297 ;	../fake_ble_stack/ble/include/gattservapp.c:143: uint8 i=0;
      00008D 90r00r09         [24]  298 	mov	dptr,#_performPeriodicTask_i_1_225
      000090 74 00            [12]  299 	mov	a,#0x00
      000092 F0               [24]  300 	movx	@dptr,a
                                    301 ;	../fake_ble_stack/ble/include/gattservapp.c:145: bool found=false;
      000093 90r00r0B         [24]  302 	mov	dptr,#_performPeriodicTask_found_1_225
      000096 F0               [24]  303 	movx	@dptr,a
                                    304 ;	../fake_ble_stack/ble/include/gattservapp.c:154: switch(BleFeedback){
      000097 AF 8E            [24]  305 	mov	r7,_BleFeedback
      000099 BF 03 03         [24]  306 	cjne	r7,#0x03,00193$
      00009C 02r00rAE         [24]  307 	ljmp	00101$
      00009F                        308 00193$:
      00009F BF 04 03         [24]  309 	cjne	r7,#0x04,00194$
      0000A2 02r00rB7         [24]  310 	ljmp	00146$
      0000A5                        311 00194$:
      0000A5 BF 05 03         [24]  312 	cjne	r7,#0x05,00195$
      0000A8 02r02r32         [24]  313 	ljmp	00153$
      0000AB                        314 00195$:
      0000AB 02r03rAA         [24]  315 	ljmp	00136$
                                    316 ;	../fake_ble_stack/ble/include/gattservapp.c:157: case 0x03:
      0000AE                        317 00101$:
                                    318 ;	../fake_ble_stack/ble/include/gattservapp.c:160: BleFeedback=0x00;
      0000AE 75 8E 00         [24]  319 	mov	_BleFeedback,#0x00
                                    320 ;	../fake_ble_stack/ble/include/gattservapp.c:161: BleOpr=0x00;
      0000B1 75 AA 00         [24]  321 	mov	_BleOpr,#0x00
                                    322 ;	../fake_ble_stack/ble/include/gattservapp.c:165: break;
      0000B4 02r03rAA         [24]  323 	ljmp	00136$
                                    324 ;	../fake_ble_stack/ble/include/gattservapp.c:168: case 0x04:
      0000B7                        325 00146$:
      0000B7 90r00r04         [24]  326 	mov	dptr,#_performPeriodicTask_ptr_1_225
      0000BA E0               [24]  327 	movx	a,@dptr
      0000BB F5*00            [12]  328 	mov	_performPeriodicTask_sloc0_1_0,a
      0000BD A3               [24]  329 	inc	dptr
      0000BE E0               [24]  330 	movx	a,@dptr
      0000BF F5*01            [12]  331 	mov	(_performPeriodicTask_sloc0_1_0 + 1),a
      0000C1 90r00r09         [24]  332 	mov	dptr,#_performPeriodicTask_i_1_225
      0000C4 E0               [24]  333 	movx	a,@dptr
      0000C5 FD               [12]  334 	mov	r5,a
      0000C6                        335 00129$:
                                    336 ;	../fake_ble_stack/ble/include/gattservapp.c:179: for(;i<ServiceN; i++){
      0000C6 90r00r00         [24]  337 	mov	dptr,#_ServiceN
      0000C9 E0               [24]  338 	movx	a,@dptr
      0000CA FB               [12]  339 	mov	r3,a
      0000CB A3               [24]  340 	inc	dptr
      0000CC E0               [24]  341 	movx	a,@dptr
      0000CD FC               [12]  342 	mov	r4,a
      0000CE 8D 01            [24]  343 	mov	ar1,r5
      0000D0 7A 00            [12]  344 	mov	r2,#0x00
      0000D2 C3               [12]  345 	clr	c
      0000D3 E9               [12]  346 	mov	a,r1
      0000D4 9B               [12]  347 	subb	a,r3
      0000D5 EA               [12]  348 	mov	a,r2
      0000D6 64 80            [12]  349 	xrl	a,#0x80
      0000D8 8C F0            [24]  350 	mov	b,r4
      0000DA 63 F0 80         [24]  351 	xrl	b,#0x80
      0000DD 95 F0            [12]  352 	subb	a,b
      0000DF 40 03            [24]  353 	jc	00196$
      0000E1 02r02r1F         [24]  354 	ljmp	00110$
      0000E4                        355 00196$:
                                    356 ;	../fake_ble_stack/ble/include/gattservapp.c:180: for( j=0;j<SERVAPP_NUM_ATTR_SUPPORTED;j++){
      0000E4 90r00r0A         [24]  357 	mov	dptr,#_performPeriodicTask_j_1_225
      0000E7 74 00            [12]  358 	mov	a,#0x00
      0000E9 F0               [24]  359 	movx	@dptr,a
      0000EA ED               [12]  360 	mov	a,r5
      0000EB 75 F0 06         [24]  361 	mov	b,#0x06
      0000EE A4               [48]  362 	mul	ab
      0000EF FB               [12]  363 	mov	r3,a
      0000F0 AC F0            [24]  364 	mov	r4,b
      0000F2 E0               [24]  365 	movx	a,@dptr
      0000F3 FA               [12]  366 	mov	r2,a
      0000F4                        367 00126$:
                                    368 ;	../fake_ble_stack/ble/include/gattservapp.c:183: pAttr = &((ServicesTable[i].service)[j]);
      0000F4 C0 05            [24]  369 	push	ar5
      0000F6 8B 82            [24]  370 	mov	dpl,r3
      0000F8 74 00            [12]  371 	mov	a,#(_ServicesTable >> 8)
      0000FA 2C               [12]  372 	add	a,r4
      0000FB F5 83            [12]  373 	mov	dph,a
      0000FD E0               [24]  374 	movx	a,@dptr
      0000FE F8               [12]  375 	mov	r0,a
      0000FF A3               [24]  376 	inc	dptr
      000100 E0               [24]  377 	movx	a,@dptr
      000101 F9               [12]  378 	mov	r1,a
      000102 A3               [24]  379 	inc	dptr
      000103 E0               [24]  380 	movx	a,@dptr
      000104 FD               [12]  381 	mov	r5,a
      000105 EA               [12]  382 	mov	a,r2
      000106 75 F0 0A         [24]  383 	mov	b,#0x0A
      000109 A4               [48]  384 	mul	ab
      00010A 28               [12]  385 	add	a,r0
      00010B F8               [12]  386 	mov	r0,a
      00010C E9               [12]  387 	mov	a,r1
      00010D 35 F0            [12]  388 	addc	a,b
      00010F F9               [12]  389 	mov	r1,a
      000110 90r00r06         [24]  390 	mov	dptr,#_performPeriodicTask_pAttr_1_225
      000113 E8               [12]  391 	mov	a,r0
      000114 F0               [24]  392 	movx	@dptr,a
      000115 E9               [12]  393 	mov	a,r1
      000116 A3               [24]  394 	inc	dptr
      000117 F0               [24]  395 	movx	@dptr,a
      000118 ED               [12]  396 	mov	a,r5
      000119 A3               [24]  397 	inc	dptr
      00011A F0               [24]  398 	movx	@dptr,a
                                    399 ;	../fake_ble_stack/ble/include/gattservapp.c:199: if(   *(uint16*)(pAttr->type).uuid == *ptr ){
      00011B 08               [12]  400 	inc	r0
      00011C B8 00 01         [24]  401 	cjne	r0,#0x00,00197$
      00011F 09               [12]  402 	inc	r1
      000120                        403 00197$:
      000120 88 82            [24]  404 	mov	dpl,r0
      000122 89 83            [24]  405 	mov	dph,r1
      000124 8D F0            [24]  406 	mov	b,r5
      000126 12r00r00         [24]  407 	lcall	__gptrget
      000129 F8               [12]  408 	mov	r0,a
      00012A A3               [24]  409 	inc	dptr
      00012B 12r00r00         [24]  410 	lcall	__gptrget
      00012E F9               [12]  411 	mov	r1,a
      00012F A3               [24]  412 	inc	dptr
      000130 12r00r00         [24]  413 	lcall	__gptrget
      000133 FD               [12]  414 	mov	r5,a
      000134 88 82            [24]  415 	mov	dpl,r0
      000136 89 83            [24]  416 	mov	dph,r1
      000138 8D F0            [24]  417 	mov	b,r5
      00013A 12r00r00         [24]  418 	lcall	__gptrget
      00013D F8               [12]  419 	mov	r0,a
      00013E A3               [24]  420 	inc	dptr
      00013F 12r00r00         [24]  421 	lcall	__gptrget
      000142 F9               [12]  422 	mov	r1,a
      000143 85*00 82         [24]  423 	mov	dpl,_performPeriodicTask_sloc0_1_0
      000146 85*01 83         [24]  424 	mov	dph,(_performPeriodicTask_sloc0_1_0 + 1)
      000149 E4               [12]  425 	clr	a
      00014A 93               [24]  426 	movc	a,@a+dptr
      00014B FD               [12]  427 	mov	r5,a
      00014C A3               [24]  428 	inc	dptr
      00014D E4               [12]  429 	clr	a
      00014E 93               [24]  430 	movc	a,@a+dptr
      00014F FF               [12]  431 	mov	r7,a
      000150 E8               [12]  432 	mov	a,r0
      000151 B5 05 06         [24]  433 	cjne	a,ar5,00198$
      000154 E9               [12]  434 	mov	a,r1
      000155 B5 07 02         [24]  435 	cjne	a,ar7,00198$
      000158 80 05            [24]  436 	sjmp	00199$
      00015A                        437 00198$:
      00015A D0 05            [24]  438 	pop	ar5
      00015C 02r01rFC         [24]  439 	ljmp	00104$
      00015F                        440 00199$:
      00015F D0 05            [24]  441 	pop	ar5
                                    442 ;	../fake_ble_stack/ble/include/gattservapp.c:210: found=true;	
      000161 C0 05            [24]  443 	push	ar5
      000163 90r00r0B         [24]  444 	mov	dptr,#_performPeriodicTask_found_1_225
      000166 74 01            [12]  445 	mov	a,#0x01
      000168 F0               [24]  446 	movx	@dptr,a
                                    447 ;	../fake_ble_stack/ble/include/gattservapp.c:211: ServicesTable[i].CBs->pfnReadAttrCB(connHandle,pAttr,pValue,&pLen,offset,0x34);
      000169 8B 06            [24]  448 	mov	ar6,r3
      00016B 74 00            [12]  449 	mov	a,#(_ServicesTable >> 8)
      00016D 2C               [12]  450 	add	a,r4
      00016E FF               [12]  451 	mov	r7,a
      00016F 8E 82            [24]  452 	mov	dpl,r6
      000171 8F 83            [24]  453 	mov	dph,r7
      000173 A3               [24]  454 	inc	dptr
      000174 A3               [24]  455 	inc	dptr
      000175 A3               [24]  456 	inc	dptr
      000176 E0               [24]  457 	movx	a,@dptr
      000177 F9               [12]  458 	mov	r1,a
      000178 A3               [24]  459 	inc	dptr
      000179 E0               [24]  460 	movx	a,@dptr
      00017A FE               [12]  461 	mov	r6,a
      00017B A3               [24]  462 	inc	dptr
      00017C E0               [24]  463 	movx	a,@dptr
      00017D FF               [12]  464 	mov	r7,a
      00017E 89 82            [24]  465 	mov	dpl,r1
      000180 8E 83            [24]  466 	mov	dph,r6
      000182 8F F0            [24]  467 	mov	b,r7
      000184 12r00r00         [24]  468 	lcall	__gptrget
      000187 F9               [12]  469 	mov	r1,a
      000188 A3               [24]  470 	inc	dptr
      000189 12r00r00         [24]  471 	lcall	__gptrget
      00018C FE               [12]  472 	mov	r6,a
      00018D 90 00 72         [24]  473 	mov	dptr,#_offset
      000190 E0               [24]  474 	movx	a,@dptr
      000191 F5*02            [12]  475 	mov	_performPeriodicTask_sloc1_1_0,a
      000193 A3               [24]  476 	inc	dptr
      000194 E0               [24]  477 	movx	a,@dptr
      000195 F5*03            [12]  478 	mov	(_performPeriodicTask_sloc1_1_0 + 1),a
      000197 90 00 65         [24]  479 	mov	dptr,#_connHandle
      00019A E0               [24]  480 	movx	a,@dptr
      00019B FD               [12]  481 	mov	r5,a
      00019C A3               [24]  482 	inc	dptr
      00019D E0               [24]  483 	movx	a,@dptr
      00019E FF               [12]  484 	mov	r7,a
      00019F C0 06            [24]  485 	push	ar6
      0001A1 C0 05            [24]  486 	push	ar5
      0001A3 C0 04            [24]  487 	push	ar4
      0001A5 C0 03            [24]  488 	push	ar3
      0001A7 C0 02            [24]  489 	push	ar2
      0001A9 C0 01            [24]  490 	push	ar1
      0001AB 74 34            [12]  491 	mov	a,#0x34
      0001AD C0 E0            [24]  492 	push	acc
      0001AF C0*02            [24]  493 	push	_performPeriodicTask_sloc1_1_0
      0001B1 C0*03            [24]  494 	push	(_performPeriodicTask_sloc1_1_0 + 1)
      0001B3 74 71            [12]  495 	mov	a,#_pLen
      0001B5 C0 E0            [24]  496 	push	acc
      0001B7 74 00            [12]  497 	mov	a,#(_pLen >> 8)
      0001B9 C0 E0            [24]  498 	push	acc
      0001BB 74 00            [12]  499 	mov	a,#0x00
      0001BD C0 E0            [24]  500 	push	acc
      0001BF 74 74            [12]  501 	mov	a,#_pValue
      0001C1 C0 E0            [24]  502 	push	acc
      0001C3 74 00            [12]  503 	mov	a,#(_pValue >> 8)
      0001C5 C0 E0            [24]  504 	push	acc
      0001C7 74 00            [12]  505 	mov	a,#0x00
      0001C9 C0 E0            [24]  506 	push	acc
      0001CB 90r00r06         [24]  507 	mov	dptr,#_performPeriodicTask_pAttr_1_225
      0001CE E0               [24]  508 	movx	a,@dptr
      0001CF C0 E0            [24]  509 	push	acc
      0001D1 A3               [24]  510 	inc	dptr
      0001D2 E0               [24]  511 	movx	a,@dptr
      0001D3 C0 E0            [24]  512 	push	acc
      0001D5 A3               [24]  513 	inc	dptr
      0001D6 E0               [24]  514 	movx	a,@dptr
      0001D7 C0 E0            [24]  515 	push	acc
      0001D9 12r01rDF         [24]  516 	lcall	00200$
      0001DC 02r01rE8         [24]  517 	ljmp	00201$
      0001DF                        518 00200$:
      0001DF C0 01            [24]  519 	push	ar1
      0001E1 C0 06            [24]  520 	push	ar6
      0001E3 8D 82            [24]  521 	mov	dpl,r5
      0001E5 8F 83            [24]  522 	mov	dph,r7
      0001E7 22               [24]  523 	ret
      0001E8                        524 00201$:
      0001E8 E5 81            [12]  525 	mov	a,sp
      0001EA 24 F4            [12]  526 	add	a,#0xf4
      0001EC F5 81            [12]  527 	mov	sp,a
      0001EE D0 01            [24]  528 	pop	ar1
      0001F0 D0 02            [24]  529 	pop	ar2
      0001F2 D0 03            [24]  530 	pop	ar3
      0001F4 D0 04            [24]  531 	pop	ar4
      0001F6 D0 05            [24]  532 	pop	ar5
      0001F8 D0 06            [24]  533 	pop	ar6
                                    534 ;	../fake_ble_stack/ble/include/gattservapp.c:293: }
      0001FA D0 05            [24]  535 	pop	ar5
                                    536 ;	../fake_ble_stack/ble/include/gattservapp.c:211: ServicesTable[i].CBs->pfnReadAttrCB(connHandle,pAttr,pValue,&pLen,offset,0x34);
      0001FC                        537 00104$:
                                    538 ;	../fake_ble_stack/ble/include/gattservapp.c:214: if(found==true)
      0001FC 90r00r0B         [24]  539 	mov	dptr,#_performPeriodicTask_found_1_225
      0001FF E0               [24]  540 	movx	a,@dptr
      000200 FF               [12]  541 	mov	r7,a
      000201 BF 01 03         [24]  542 	cjne	r7,#0x01,00202$
      000204 02r02r10         [24]  543 	ljmp	00107$
      000207                        544 00202$:
                                    545 ;	../fake_ble_stack/ble/include/gattservapp.c:180: for( j=0;j<SERVAPP_NUM_ATTR_SUPPORTED;j++){
      000207 0A               [12]  546 	inc	r2
      000208 BA 04 00         [24]  547 	cjne	r2,#0x04,00203$
      00020B                        548 00203$:
      00020B 50 03            [24]  549 	jnc	00204$
      00020D 02r00rF4         [24]  550 	ljmp	00126$
      000210                        551 00204$:
      000210                        552 00107$:
                                    553 ;	../fake_ble_stack/ble/include/gattservapp.c:219: if(found==true)
      000210 90r00r0B         [24]  554 	mov	dptr,#_performPeriodicTask_found_1_225
      000213 E0               [24]  555 	movx	a,@dptr
      000214 FF               [12]  556 	mov	r7,a
      000215 BF 01 03         [24]  557 	cjne	r7,#0x01,00205$
      000218 02r02r1F         [24]  558 	ljmp	00110$
      00021B                        559 00205$:
                                    560 ;	../fake_ble_stack/ble/include/gattservapp.c:179: for(;i<ServiceN; i++){
      00021B 0D               [12]  561 	inc	r5
      00021C 02r00rC6         [24]  562 	ljmp	00129$
      00021F                        563 00110$:
                                    564 ;	../fake_ble_stack/ble/include/gattservapp.c:226: if(found==true){
      00021F 90r00r0B         [24]  565 	mov	dptr,#_performPeriodicTask_found_1_225
      000222 E0               [24]  566 	movx	a,@dptr
      000223 FF               [12]  567 	mov	r7,a
      000224 BF 01 02         [24]  568 	cjne	r7,#0x01,00206$
      000227 80 03            [24]  569 	sjmp	00207$
      000229                        570 00206$:
      000229 02r03rAA         [24]  571 	ljmp	00136$
      00022C                        572 00207$:
                                    573 ;	../fake_ble_stack/ble/include/gattservapp.c:227: BleOpr=0x04;
      00022C 75 AA 04         [24]  574 	mov	_BleOpr,#0x04
                                    575 ;	../fake_ble_stack/ble/include/gattservapp.c:240: break;
      00022F 02r03rAA         [24]  576 	ljmp	00136$
                                    577 ;	../fake_ble_stack/ble/include/gattservapp.c:243: case 5:
      000232                        578 00153$:
      000232 90r00r04         [24]  579 	mov	dptr,#_performPeriodicTask_ptr_1_225
      000235 E0               [24]  580 	movx	a,@dptr
      000236 F5*02            [12]  581 	mov	_performPeriodicTask_sloc1_1_0,a
      000238 A3               [24]  582 	inc	dptr
      000239 E0               [24]  583 	movx	a,@dptr
      00023A F5*03            [12]  584 	mov	(_performPeriodicTask_sloc1_1_0 + 1),a
      00023C 90r00r09         [24]  585 	mov	dptr,#_performPeriodicTask_i_1_225
      00023F E0               [24]  586 	movx	a,@dptr
      000240 FD               [12]  587 	mov	r5,a
      000241                        588 00134$:
                                    589 ;	../fake_ble_stack/ble/include/gattservapp.c:247: for(;i<ServiceN; i++){
      000241 90r00r00         [24]  590 	mov	dptr,#_ServiceN
      000244 E0               [24]  591 	movx	a,@dptr
      000245 FB               [12]  592 	mov	r3,a
      000246 A3               [24]  593 	inc	dptr
      000247 E0               [24]  594 	movx	a,@dptr
      000248 FC               [12]  595 	mov	r4,a
      000249 8D 01            [24]  596 	mov	ar1,r5
      00024B 7A 00            [12]  597 	mov	r2,#0x00
      00024D C3               [12]  598 	clr	c
      00024E E9               [12]  599 	mov	a,r1
      00024F 9B               [12]  600 	subb	a,r3
      000250 EA               [12]  601 	mov	a,r2
      000251 64 80            [12]  602 	xrl	a,#0x80
      000253 8C F0            [24]  603 	mov	b,r4
      000255 63 F0 80         [24]  604 	xrl	b,#0x80
      000258 95 F0            [12]  605 	subb	a,b
      00025A 40 03            [24]  606 	jc	00208$
      00025C 02r03r9A         [24]  607 	ljmp	00121$
      00025F                        608 00208$:
                                    609 ;	../fake_ble_stack/ble/include/gattservapp.c:248: for( j=0;j<SERVAPP_NUM_ATTR_SUPPORTED;j++){
      00025F 90r00r0A         [24]  610 	mov	dptr,#_performPeriodicTask_j_1_225
      000262 74 00            [12]  611 	mov	a,#0x00
      000264 F0               [24]  612 	movx	@dptr,a
      000265 ED               [12]  613 	mov	a,r5
      000266 75 F0 06         [24]  614 	mov	b,#0x06
      000269 A4               [48]  615 	mul	ab
      00026A FB               [12]  616 	mov	r3,a
      00026B AC F0            [24]  617 	mov	r4,b
      00026D E0               [24]  618 	movx	a,@dptr
      00026E FA               [12]  619 	mov	r2,a
      00026F                        620 00131$:
                                    621 ;	../fake_ble_stack/ble/include/gattservapp.c:251: pAttr = &((ServicesTable[i].service)[j]);
      00026F C0 05            [24]  622 	push	ar5
      000271 8B 82            [24]  623 	mov	dpl,r3
      000273 74 00            [12]  624 	mov	a,#(_ServicesTable >> 8)
      000275 2C               [12]  625 	add	a,r4
      000276 F5 83            [12]  626 	mov	dph,a
      000278 E0               [24]  627 	movx	a,@dptr
      000279 F8               [12]  628 	mov	r0,a
      00027A A3               [24]  629 	inc	dptr
      00027B E0               [24]  630 	movx	a,@dptr
      00027C F9               [12]  631 	mov	r1,a
      00027D A3               [24]  632 	inc	dptr
      00027E E0               [24]  633 	movx	a,@dptr
      00027F FD               [12]  634 	mov	r5,a
      000280 EA               [12]  635 	mov	a,r2
      000281 75 F0 0A         [24]  636 	mov	b,#0x0A
      000284 A4               [48]  637 	mul	ab
      000285 28               [12]  638 	add	a,r0
      000286 F8               [12]  639 	mov	r0,a
      000287 E9               [12]  640 	mov	a,r1
      000288 35 F0            [12]  641 	addc	a,b
      00028A F9               [12]  642 	mov	r1,a
      00028B 90r00r06         [24]  643 	mov	dptr,#_performPeriodicTask_pAttr_1_225
      00028E E8               [12]  644 	mov	a,r0
      00028F F0               [24]  645 	movx	@dptr,a
      000290 E9               [12]  646 	mov	a,r1
      000291 A3               [24]  647 	inc	dptr
      000292 F0               [24]  648 	movx	@dptr,a
      000293 ED               [12]  649 	mov	a,r5
      000294 A3               [24]  650 	inc	dptr
      000295 F0               [24]  651 	movx	@dptr,a
                                    652 ;	../fake_ble_stack/ble/include/gattservapp.c:253: if(   *(uint16*)(pAttr->type).uuid == *ptr ){
      000296 08               [12]  653 	inc	r0
      000297 B8 00 01         [24]  654 	cjne	r0,#0x00,00209$
      00029A 09               [12]  655 	inc	r1
      00029B                        656 00209$:
      00029B 88 82            [24]  657 	mov	dpl,r0
      00029D 89 83            [24]  658 	mov	dph,r1
      00029F 8D F0            [24]  659 	mov	b,r5
      0002A1 12r00r00         [24]  660 	lcall	__gptrget
      0002A4 F8               [12]  661 	mov	r0,a
      0002A5 A3               [24]  662 	inc	dptr
      0002A6 12r00r00         [24]  663 	lcall	__gptrget
      0002A9 F9               [12]  664 	mov	r1,a
      0002AA A3               [24]  665 	inc	dptr
      0002AB 12r00r00         [24]  666 	lcall	__gptrget
      0002AE FD               [12]  667 	mov	r5,a
      0002AF 88 82            [24]  668 	mov	dpl,r0
      0002B1 89 83            [24]  669 	mov	dph,r1
      0002B3 8D F0            [24]  670 	mov	b,r5
      0002B5 12r00r00         [24]  671 	lcall	__gptrget
      0002B8 F8               [12]  672 	mov	r0,a
      0002B9 A3               [24]  673 	inc	dptr
      0002BA 12r00r00         [24]  674 	lcall	__gptrget
      0002BD F9               [12]  675 	mov	r1,a
      0002BE 85*02 82         [24]  676 	mov	dpl,_performPeriodicTask_sloc1_1_0
      0002C1 85*03 83         [24]  677 	mov	dph,(_performPeriodicTask_sloc1_1_0 + 1)
      0002C4 E4               [12]  678 	clr	a
      0002C5 93               [24]  679 	movc	a,@a+dptr
      0002C6 FD               [12]  680 	mov	r5,a
      0002C7 A3               [24]  681 	inc	dptr
      0002C8 E4               [12]  682 	clr	a
      0002C9 93               [24]  683 	movc	a,@a+dptr
      0002CA FF               [12]  684 	mov	r7,a
      0002CB E8               [12]  685 	mov	a,r0
      0002CC B5 05 06         [24]  686 	cjne	a,ar5,00210$
      0002CF E9               [12]  687 	mov	a,r1
      0002D0 B5 07 02         [24]  688 	cjne	a,ar7,00210$
      0002D3 80 05            [24]  689 	sjmp	00211$
      0002D5                        690 00210$:
      0002D5 D0 05            [24]  691 	pop	ar5
      0002D7 02r03r77         [24]  692 	ljmp	00115$
      0002DA                        693 00211$:
      0002DA D0 05            [24]  694 	pop	ar5
                                    695 ;	../fake_ble_stack/ble/include/gattservapp.c:256: found=true;	
      0002DC C0 05            [24]  696 	push	ar5
      0002DE 90r00r0B         [24]  697 	mov	dptr,#_performPeriodicTask_found_1_225
      0002E1 74 01            [12]  698 	mov	a,#0x01
      0002E3 F0               [24]  699 	movx	@dptr,a
                                    700 ;	../fake_ble_stack/ble/include/gattservapp.c:259: ServicesTable[i].CBs->pfnWriteAttrCB(connHandle,pAttr,pValue,pLen,offset);
      0002E4 8B 06            [24]  701 	mov	ar6,r3
      0002E6 74 00            [12]  702 	mov	a,#(_ServicesTable >> 8)
      0002E8 2C               [12]  703 	add	a,r4
      0002E9 FF               [12]  704 	mov	r7,a
      0002EA 8E 82            [24]  705 	mov	dpl,r6
      0002EC 8F 83            [24]  706 	mov	dph,r7
      0002EE A3               [24]  707 	inc	dptr
      0002EF A3               [24]  708 	inc	dptr
      0002F0 A3               [24]  709 	inc	dptr
      0002F1 E0               [24]  710 	movx	a,@dptr
      0002F2 F9               [12]  711 	mov	r1,a
      0002F3 A3               [24]  712 	inc	dptr
      0002F4 E0               [24]  713 	movx	a,@dptr
      0002F5 FE               [12]  714 	mov	r6,a
      0002F6 A3               [24]  715 	inc	dptr
      0002F7 E0               [24]  716 	movx	a,@dptr
      0002F8 FF               [12]  717 	mov	r7,a
      0002F9 74 02            [12]  718 	mov	a,#0x02
      0002FB 29               [12]  719 	add	a,r1
      0002FC F9               [12]  720 	mov	r1,a
      0002FD 74 00            [12]  721 	mov	a,#0x00
      0002FF 3E               [12]  722 	addc	a,r6
      000300 FE               [12]  723 	mov	r6,a
      000301 89 82            [24]  724 	mov	dpl,r1
      000303 8E 83            [24]  725 	mov	dph,r6
      000305 8F F0            [24]  726 	mov	b,r7
      000307 12r00r00         [24]  727 	lcall	__gptrget
      00030A F9               [12]  728 	mov	r1,a
      00030B A3               [24]  729 	inc	dptr
      00030C 12r00r00         [24]  730 	lcall	__gptrget
      00030F FE               [12]  731 	mov	r6,a
      000310 90 00 72         [24]  732 	mov	dptr,#_offset
      000313 E0               [24]  733 	movx	a,@dptr
      000314 F5*04            [12]  734 	mov	_performPeriodicTask_sloc2_1_0,a
      000316 A3               [24]  735 	inc	dptr
      000317 E0               [24]  736 	movx	a,@dptr
      000318 F5*05            [12]  737 	mov	(_performPeriodicTask_sloc2_1_0 + 1),a
      00031A 90 00 71         [24]  738 	mov	dptr,#_pLen
      00031D E0               [24]  739 	movx	a,@dptr
      00031E F5*00            [12]  740 	mov	_performPeriodicTask_sloc0_1_0,a
      000320 90 00 65         [24]  741 	mov	dptr,#_connHandle
      000323 E0               [24]  742 	movx	a,@dptr
      000324 FD               [12]  743 	mov	r5,a
      000325 A3               [24]  744 	inc	dptr
      000326 E0               [24]  745 	movx	a,@dptr
      000327 FF               [12]  746 	mov	r7,a
      000328 C0 06            [24]  747 	push	ar6
      00032A C0 05            [24]  748 	push	ar5
      00032C C0 04            [24]  749 	push	ar4
      00032E C0 03            [24]  750 	push	ar3
      000330 C0 02            [24]  751 	push	ar2
      000332 C0 01            [24]  752 	push	ar1
      000334 C0*04            [24]  753 	push	_performPeriodicTask_sloc2_1_0
      000336 C0*05            [24]  754 	push	(_performPeriodicTask_sloc2_1_0 + 1)
      000338 C0*00            [24]  755 	push	_performPeriodicTask_sloc0_1_0
      00033A 74 74            [12]  756 	mov	a,#_pValue
      00033C C0 E0            [24]  757 	push	acc
      00033E 74 00            [12]  758 	mov	a,#(_pValue >> 8)
      000340 C0 E0            [24]  759 	push	acc
      000342 74 00            [12]  760 	mov	a,#0x00
      000344 C0 E0            [24]  761 	push	acc
      000346 90r00r06         [24]  762 	mov	dptr,#_performPeriodicTask_pAttr_1_225
      000349 E0               [24]  763 	movx	a,@dptr
      00034A C0 E0            [24]  764 	push	acc
      00034C A3               [24]  765 	inc	dptr
      00034D E0               [24]  766 	movx	a,@dptr
      00034E C0 E0            [24]  767 	push	acc
      000350 A3               [24]  768 	inc	dptr
      000351 E0               [24]  769 	movx	a,@dptr
      000352 C0 E0            [24]  770 	push	acc
      000354 12r03r5A         [24]  771 	lcall	00212$
      000357 02r03r63         [24]  772 	ljmp	00213$
      00035A                        773 00212$:
      00035A C0 01            [24]  774 	push	ar1
      00035C C0 06            [24]  775 	push	ar6
      00035E 8D 82            [24]  776 	mov	dpl,r5
      000360 8F 83            [24]  777 	mov	dph,r7
      000362 22               [24]  778 	ret
      000363                        779 00213$:
      000363 E5 81            [12]  780 	mov	a,sp
      000365 24 F7            [12]  781 	add	a,#0xf7
      000367 F5 81            [12]  782 	mov	sp,a
      000369 D0 01            [24]  783 	pop	ar1
      00036B D0 02            [24]  784 	pop	ar2
      00036D D0 03            [24]  785 	pop	ar3
      00036F D0 04            [24]  786 	pop	ar4
      000371 D0 05            [24]  787 	pop	ar5
      000373 D0 06            [24]  788 	pop	ar6
                                    789 ;	../fake_ble_stack/ble/include/gattservapp.c:293: }
      000375 D0 05            [24]  790 	pop	ar5
                                    791 ;	../fake_ble_stack/ble/include/gattservapp.c:259: ServicesTable[i].CBs->pfnWriteAttrCB(connHandle,pAttr,pValue,pLen,offset);
      000377                        792 00115$:
                                    793 ;	../fake_ble_stack/ble/include/gattservapp.c:263: if(found==true)
      000377 90r00r0B         [24]  794 	mov	dptr,#_performPeriodicTask_found_1_225
      00037A E0               [24]  795 	movx	a,@dptr
      00037B FF               [12]  796 	mov	r7,a
      00037C BF 01 03         [24]  797 	cjne	r7,#0x01,00214$
      00037F 02r03r8B         [24]  798 	ljmp	00118$
      000382                        799 00214$:
                                    800 ;	../fake_ble_stack/ble/include/gattservapp.c:248: for( j=0;j<SERVAPP_NUM_ATTR_SUPPORTED;j++){
      000382 0A               [12]  801 	inc	r2
      000383 BA 04 00         [24]  802 	cjne	r2,#0x04,00215$
      000386                        803 00215$:
      000386 50 03            [24]  804 	jnc	00216$
      000388 02r02r6F         [24]  805 	ljmp	00131$
      00038B                        806 00216$:
      00038B                        807 00118$:
                                    808 ;	../fake_ble_stack/ble/include/gattservapp.c:268: if(found==true)
      00038B 90r00r0B         [24]  809 	mov	dptr,#_performPeriodicTask_found_1_225
      00038E E0               [24]  810 	movx	a,@dptr
      00038F FF               [12]  811 	mov	r7,a
      000390 BF 01 03         [24]  812 	cjne	r7,#0x01,00217$
      000393 02r03r9A         [24]  813 	ljmp	00121$
      000396                        814 00217$:
                                    815 ;	../fake_ble_stack/ble/include/gattservapp.c:247: for(;i<ServiceN; i++){
      000396 0D               [12]  816 	inc	r5
      000397 02r02r41         [24]  817 	ljmp	00134$
      00039A                        818 00121$:
                                    819 ;	../fake_ble_stack/ble/include/gattservapp.c:275: if(found==true){
      00039A 90r00r0B         [24]  820 	mov	dptr,#_performPeriodicTask_found_1_225
      00039D E0               [24]  821 	movx	a,@dptr
      00039E FF               [12]  822 	mov	r7,a
      00039F BF 01 02         [24]  823 	cjne	r7,#0x01,00218$
      0003A2 80 03            [24]  824 	sjmp	00219$
      0003A4                        825 00218$:
      0003A4 02r03rAA         [24]  826 	ljmp	00136$
      0003A7                        827 00219$:
                                    828 ;	../fake_ble_stack/ble/include/gattservapp.c:276: BleOpr=0x05;
      0003A7 75 AA 05         [24]  829 	mov	_BleOpr,#0x05
                                    830 ;	../fake_ble_stack/ble/include/gattservapp.c:293: }
      0003AA                        831 00136$:
      0003AA 22               [24]  832 	ret
                                    833 ;------------------------------------------------------------
                                    834 ;Allocation info for local variables in function 'GATTServApp_RegisterService'
                                    835 ;------------------------------------------------------------
                                    836 ;numAttrs                  Allocated with name '_GATTServApp_RegisterService_PARM_2'
                                    837 ;pServiceCBs               Allocated with name '_GATTServApp_RegisterService_PARM_3'
                                    838 ;pAttrs                    Allocated with name '_GATTServApp_RegisterService_pAttrs_1_235'
                                    839 ;idx                       Allocated with name '_GATTServApp_RegisterService_idx_1_236'
                                    840 ;------------------------------------------------------------
                                    841 ;	../fake_ble_stack/ble/include/gattservapp.c:317: bStatus_t GATTServApp_RegisterService( gattAttribute_t *pAttrs, uint16 numAttrs,CONST gattServiceCBs_t *pServiceCBs ){
                                    842 ;	-----------------------------------------
                                    843 ;	 function GATTServApp_RegisterService
                                    844 ;	-----------------------------------------
      0003AB                        845 _GATTServApp_RegisterService:
      0003AB AF F0            [24]  846 	mov	r7,b
      0003AD AE 83            [24]  847 	mov	r6,dph
      0003AF E5 82            [12]  848 	mov	a,dpl
      0003B1 90r00r11         [24]  849 	mov	dptr,#_GATTServApp_RegisterService_pAttrs_1_235
      0003B4 F0               [24]  850 	movx	@dptr,a
      0003B5 EE               [12]  851 	mov	a,r6
      0003B6 A3               [24]  852 	inc	dptr
      0003B7 F0               [24]  853 	movx	@dptr,a
      0003B8 EF               [12]  854 	mov	a,r7
      0003B9 A3               [24]  855 	inc	dptr
      0003BA F0               [24]  856 	movx	@dptr,a
                                    857 ;	../fake_ble_stack/ble/include/gattservapp.c:319: int idx=ServiceN;
      0003BB 90r00r00         [24]  858 	mov	dptr,#_ServiceN
      0003BE E0               [24]  859 	movx	a,@dptr
      0003BF FE               [12]  860 	mov	r6,a
      0003C0 A3               [24]  861 	inc	dptr
      0003C1 E0               [24]  862 	movx	a,@dptr
      0003C2 FF               [12]  863 	mov	r7,a
      0003C3 90r00r14         [24]  864 	mov	dptr,#_GATTServApp_RegisterService_idx_1_236
      0003C6 EE               [12]  865 	mov	a,r6
      0003C7 F0               [24]  866 	movx	@dptr,a
      0003C8 EF               [12]  867 	mov	a,r7
      0003C9 A3               [24]  868 	inc	dptr
      0003CA F0               [24]  869 	movx	@dptr,a
                                    870 ;	../fake_ble_stack/ble/include/gattservapp.c:321: if(ServiceN == maxServiceN )
      0003CB BE 0A 05         [24]  871 	cjne	r6,#0x0A,00108$
      0003CE BF 00 02         [24]  872 	cjne	r7,#0x00,00108$
      0003D1 80 03            [24]  873 	sjmp	00109$
      0003D3                        874 00108$:
      0003D3 02r03rDC         [24]  875 	ljmp	00102$
      0003D6                        876 00109$:
                                    877 ;	../fake_ble_stack/ble/include/gattservapp.c:322: return false;
      0003D6 75 82 00         [24]  878 	mov	dpl,#0x00
      0003D9 02r04r57         [24]  879 	ljmp	00103$
      0003DC                        880 00102$:
                                    881 ;	../fake_ble_stack/ble/include/gattservapp.c:329: ServicesTable[idx].service=pAttrs;
      0003DC 90r00r14         [24]  882 	mov	dptr,#_GATTServApp_RegisterService_idx_1_236
      0003DF E0               [24]  883 	movx	a,@dptr
      0003E0 FE               [12]  884 	mov	r6,a
      0003E1 A3               [24]  885 	inc	dptr
      0003E2 E0               [24]  886 	movx	a,@dptr
      0003E3 FF               [12]  887 	mov	r7,a
      0003E4 90r00r00         [24]  888 	mov	dptr,#__mulint_PARM_2
      0003E7 EE               [12]  889 	mov	a,r6
      0003E8 F0               [24]  890 	movx	@dptr,a
      0003E9 EF               [12]  891 	mov	a,r7
      0003EA A3               [24]  892 	inc	dptr
      0003EB F0               [24]  893 	movx	@dptr,a
      0003EC 75 82 06         [24]  894 	mov	dpl,#0x06
      0003EF 75 83 00         [24]  895 	mov	dph,#0x00
      0003F2 12r00r00         [24]  896 	lcall	__mulint
      0003F5 AE 82            [24]  897 	mov	r6,dpl
      0003F7 AF 83            [24]  898 	mov	r7,dph
      0003F9 8E 04            [24]  899 	mov	ar4,r6
      0003FB 74 00            [12]  900 	mov	a,#(_ServicesTable >> 8)
      0003FD 2F               [12]  901 	add	a,r7
      0003FE FD               [12]  902 	mov	r5,a
      0003FF 90r00r11         [24]  903 	mov	dptr,#_GATTServApp_RegisterService_pAttrs_1_235
      000402 E0               [24]  904 	movx	a,@dptr
      000403 F9               [12]  905 	mov	r1,a
      000404 A3               [24]  906 	inc	dptr
      000405 E0               [24]  907 	movx	a,@dptr
      000406 FA               [12]  908 	mov	r2,a
      000407 A3               [24]  909 	inc	dptr
      000408 E0               [24]  910 	movx	a,@dptr
      000409 FB               [12]  911 	mov	r3,a
      00040A 8C 82            [24]  912 	mov	dpl,r4
      00040C 8D 83            [24]  913 	mov	dph,r5
      00040E E9               [12]  914 	mov	a,r1
      00040F F0               [24]  915 	movx	@dptr,a
      000410 EA               [12]  916 	mov	a,r2
      000411 A3               [24]  917 	inc	dptr
      000412 F0               [24]  918 	movx	@dptr,a
      000413 EB               [12]  919 	mov	a,r3
      000414 A3               [24]  920 	inc	dptr
      000415 F0               [24]  921 	movx	@dptr,a
                                    922 ;	../fake_ble_stack/ble/include/gattservapp.c:330: ServicesTable[idx].CBs=pServiceCBs;
      000416 74 00            [12]  923 	mov	a,#(_ServicesTable >> 8)
      000418 2F               [12]  924 	add	a,r7
      000419 FF               [12]  925 	mov	r7,a
      00041A 74 03            [12]  926 	mov	a,#0x03
      00041C 2E               [12]  927 	add	a,r6
      00041D FE               [12]  928 	mov	r6,a
      00041E 74 00            [12]  929 	mov	a,#0x00
      000420 3F               [12]  930 	addc	a,r7
      000421 FF               [12]  931 	mov	r7,a
      000422 90r00r0E         [24]  932 	mov	dptr,#_GATTServApp_RegisterService_PARM_3
      000425 E0               [24]  933 	movx	a,@dptr
      000426 FB               [12]  934 	mov	r3,a
      000427 A3               [24]  935 	inc	dptr
      000428 E0               [24]  936 	movx	a,@dptr
      000429 FC               [12]  937 	mov	r4,a
      00042A A3               [24]  938 	inc	dptr
      00042B E0               [24]  939 	movx	a,@dptr
      00042C FD               [12]  940 	mov	r5,a
      00042D 8E 82            [24]  941 	mov	dpl,r6
      00042F 8F 83            [24]  942 	mov	dph,r7
      000431 EB               [12]  943 	mov	a,r3
      000432 F0               [24]  944 	movx	@dptr,a
      000433 EC               [12]  945 	mov	a,r4
      000434 A3               [24]  946 	inc	dptr
      000435 F0               [24]  947 	movx	@dptr,a
      000436 ED               [12]  948 	mov	a,r5
      000437 A3               [24]  949 	inc	dptr
      000438 F0               [24]  950 	movx	@dptr,a
                                    951 ;	../fake_ble_stack/ble/include/gattservapp.c:336: BleOpr=0x03;
      000439 75 AA 03         [24]  952 	mov	_BleOpr,#0x03
                                    953 ;	../fake_ble_stack/ble/include/gattservapp.c:337: ServNH= (ServiceN>>8);
      00043C 90r00r00         [24]  954 	mov	dptr,#_ServiceN
      00043F E0               [24]  955 	movx	a,@dptr
      000440 FE               [12]  956 	mov	r6,a
      000441 A3               [24]  957 	inc	dptr
      000442 E0               [24]  958 	movx	a,@dptr
      000443 FF               [12]  959 	mov	r7,a
      000444 8F B0            [24]  960 	mov	_ServNH,r7
                                    961 ;	../fake_ble_stack/ble/include/gattservapp.c:338: ServNL=ServiceN;
      000446 8E B7            [24]  962 	mov	_ServNL,r6
                                    963 ;	../fake_ble_stack/ble/include/gattservapp.c:341: ServiceN++;
      000448 90r00r00         [24]  964 	mov	dptr,#_ServiceN
      00044B 74 01            [12]  965 	mov	a,#0x01
      00044D 2E               [12]  966 	add	a,r6
      00044E F0               [24]  967 	movx	@dptr,a
      00044F 74 00            [12]  968 	mov	a,#0x00
      000451 3F               [12]  969 	addc	a,r7
      000452 A3               [24]  970 	inc	dptr
      000453 F0               [24]  971 	movx	@dptr,a
                                    972 ;	../fake_ble_stack/ble/include/gattservapp.c:343: return true;
      000454 75 82 01         [24]  973 	mov	dpl,#0x01
      000457                        974 00103$:
      000457 22               [24]  975 	ret
                                    976 	.area CSEG    (CODE)
                                    977 	.area CONST   (CODE)
                                    978 	.area CABS    (ABS,CODE)
